(lp0
(lp1
I0
aI0
aI0
aI0
aI0
aI0
aI0
aI0
aI0
aI0
aI0
aI0
aI0
aI0
aI0
aI0
aI0
aI0
aI0
aI0
aI0
aI0
aI0
aI0
aI0
aI0
aI0
aI0
aI0
aI0
aI0
aI0
aI0
aI0
aI0
aI0
aI0
aI0
aI0
aI0
aI0
aI0
aI0
aI0
aI0
aI0
aI0
aI0
aI0
aI0
aI0
aI0
aI0
aI0
aI0
aI0
aI0
aI0
aI0
aI0
aI0
aI0
aI0
aI0
aI0
aI0
aI0
aI0
aI0
aI0
aI0
aI0
aI0
aI0
aI0
aI0
aI0
aI0
aI0
aI0
aI0
aI0
aI0
aI0
aI0
aI0
aI0
aI0
aI0
aI0
aI0
aI0
aI0
aI0
aI0
aI0
aI0
aI0
aI0
aI0
aI0
aI0
aI0
aI0
aI0
aI0
aI0
aI0
aI0
aI0
aI0
aI0
aI0
aI0
aI0
aI0
aI0
aI0
aI0
aI0
aI0
aI0
aI0
aI0
aI0
aI0
aI0
aI0
aI0
aI0
aI0
aI0
aI0
aI1
aI1
aI1
aI1
aI1
aI1
aI1
aI1
aI1
aI1
aI1
aI1
aI1
aI1
aI1
aI1
aI1
aI1
aI1
aI1
aI1
aI1
aI1
aI1
aI1
aI1
aI1
aI1
aI1
aI1
aI1
aI1
aI1
aI1
aI1
aI1
aI1
aI1
aI1
aI1
aI1
aI1
aI1
aI1
aI1
aI1
aI1
aI1
aI1
aI1
aI1
aI1
aI1
aI1
aI1
aI1
aI1
aI1
aI1
aI1
aI1
aI1
aI1
aI1
aI1
aI1
aI1
aI1
aI1
aI1
aI1
aI1
aI1
aI1
aI1
aI1
aI1
aI1
aI1
aI1
aI1
aI1
aI1
aI1
aI1
aI1
aI1
aI1
aI1
aI1
aI1
aI1
aI1
aI1
aI1
aI1
aI1
aI1
aI1
aI1
aI1
aI1
aI1
aI1
aI1
aI1
aI1
aI1
aI1
aI1
aI1
aI1
aI1
aI1
aI1
aI1
aI1
aI1
aI1
aI1
aI1
aI1
aI1
aI1
aI1
aI1
aI1
aI1
aI1
aI1
aI1
aI1
aI1
aI1
aI1
aI1
aI1
aI1
aI1
aI1
aI1
aI1
aI1
aI1
aI1
aI1
aI1
aI1
aI1
aI1
aI1
aI1
aI1
aI1
aI1
aI1
aI1
aI1
aI1
aI1
aI1
aI1
aI1
aI1
aI1
aI1
aI1
aI1
aI1
aI1
aI1
aI1
aI1
aI1
aI1
aI1
aI1
aI1
aI1
aI1
aI1
aI1
aI1
aI1
aI1
aI1
aI1
aI1
aI1
aI1
aI1
aI1
aI1
aI1
aI1
aI1
aI1
aI1
aI1
aI1
aI1
aI1
aI1
aI1
aI1
aI1
aI1
aI1
aI1
aI1
aI1
aI1
aI1
aI1
aI1
aI1
aI1
aI1
aI1
aI1
aI1
aI1
aI1
aI1
aI1
aI1
aI1
aI1
aI1
aI1
aI1
aI1
aI1
aI1
aI1
aI1
aI1
aI1
aI1
aI1
aI1
aI1
aI1
aI1
aI1
aI1
aI1
aI1
aI1
aI1
aI1
aI1
aI1
aI1
aI1
aI1
aI1
aI1
aI1
aI1
aI1
aI1
aI1
aI1
aI1
aI1
aI1
aI1
aI1
aI1
aI1
aI1
aI1
aI1
aI1
aI1
aI1
aI1
aI1
aI1
aI1
aI1
aI1
aI1
aI1
aI1
aI1
aI1
aI1
aI1
aI1
aI1
aI1
aI1
aI1
aI1
aI1
aI1
aI1
aI1
aI1
aI1
aI1
aI1
aI1
aI1
aI1
aI1
aI1
aI1
aI1
aI1
aI1
aI1
aI1
aI1
aI1
aI1
aI1
aI1
aI1
aI1
aI1
aI1
aI1
aI1
aI1
aI1
aI1
aI1
aI1
aI1
aI1
aI1
aI1
aI1
aI1
aI1
aI1
aI1
aI1
aI1
aI1
aI1
aI1
aI1
aI1
aI1
aI1
aI1
aI1
aI1
aI1
aI1
aI1
aI1
aI1
aI1
aI1
aI1
aI1
aI1
aI1
aI1
aI1
aI1
aI1
aI1
aI1
aI1
aI1
aI1
aI1
aI1
aI1
aI1
aI1
aI1
aI1
aI1
aI1
aI1
aI1
aI1
aI1
aI1
aI1
aI1
aI1
aI1
aI1
aI1
aI1
aI1
aI1
aI1
aI1
aI1
aI1
aI1
aI1
aI1
aI1
aI1
aI1
aI1
aI1
aI1
aI1
aI1
aI1
aI2
aI2
aI2
aI2
aI2
aI2
aI2
aI2
aI2
aI2
aI2
aI2
aI2
aI2
aI2
aI2
aI2
aI2
aI2
aI2
aI2
aI2
aI2
aI2
aI2
aI2
aI2
aI3
aI3
aI3
aI3
aI3
aI3
aI3
aI3
aI3
aI3
aI3
aI3
aI3
aI3
aI3
aI3
aI3
aI3
aI3
aI3
aI3
aI3
aI3
aI3
aI3
aI3
aI3
aI3
aI3
aI3
aI3
aI3
aI3
aI3
aI3
aI3
aI3
aI3
aI3
aI3
aI3
aI3
aI3
aI3
aI3
aI3
aI3
aI3
aI3
aI3
aI3
aI3
aI3
aI3
aI3
aI3
aI3
aI3
aI3
aI3
aI3
aI3
aI3
aI3
aI3
aI3
aI3
aI3
aI3
aI3
aI3
aI3
aI3
aI3
aI3
aI3
aI3
aI3
aI3
aI3
aI3
aI3
aI3
aI3
aI3
aI3
aI3
aI3
aI3
aI3
aI3
aI3
aI3
aI3
aI3
aI3
aI3
aI3
aI3
aI3
aI3
aI3
aI3
aI3
aI3
aI3
aI3
aI3
aI3
aI3
aI3
aI3
aI3
aI3
aI3
aI3
aI3
aI3
aI3
aI3
aI3
aI3
aI3
aI3
aI3
aI3
aI3
aI3
aI3
aI4
aI4
aI4
aI4
aI4
aI4
aI4
aI5
aI5
aI5
aI5
aI5
aI5
aI5
aI5
aI5
aI5
aI5
aI5
aI5
aI5
aI5
aI5
aI5
aI5
aI5
aI5
aI5
aI5
aI5
aI5
aI6
aI6
aI6
aI6
aI6
aI6
aI6
aI6
aI6
aI6
aI6
aI6
aI6
aI6
aI6
aI6
aI6
aI6
aI6
aI6
aI6
aI6
aI6
aI6
aI6
aI6
aI6
aI6
aI6
aI6
aI6
aI6
aI6
aI6
aI6
aI6
aI6
aI6
aI6
aI6
aI6
aI6
aI6
aI6
aI6
aI6
aI6
aI6
aI6
aI6
aI6
aI6
aI6
aI6
aI6
aI6
aI6
aI6
aI6
aI6
aI6
aI6
aI6
aI6
aI6
aI6
aI6
aI6
aI6
aI6
aI6
aI6
aI6
aI6
aI6
aI6
aI6
aI6
aI6
aI6
aI6
aI6
aI6
aI6
aI6
aI6
aI6
aI6
aI6
aI6
aI6
aI6
aI6
aI6
aI6
aI6
aI6
aI6
aI6
aI6
aI6
aI6
aI6
aI6
aI6
aI6
aI6
aI6
aI6
aI6
aI6
aI6
aI6
aI6
aI6
aI6
aI6
aI6
aI6
aI6
aI6
aI6
aI6
aI6
aI6
aI6
aI6
aI6
aI6
aI6
aI6
aI6
aI6
aI6
aI6
aI6
aI6
aI6
aI6
aI6
aI6
aI6
aI6
aI6
aI6
aI6
aI6
aI6
aI6
aI6
aI6
aI6
aI6
aI6
aI6
aI6
aI6
aI6
aI6
aI6
aI6
aI6
aI6
aI6
aI6
aI6
aI6
aI6
aI6
aI6
aI6
aI6
aI6
aI6
aI6
aI6
aI6
aI6
aI6
aI6
aI6
aI6
aI6
aI6
aI6
aI6
aI6
aI6
aI6
aI6
aI6
aI6
aI6
aI6
aI6
aI6
aI6
aI6
aI6
aI6
aI6
aI6
aI6
aI6
aI6
aI6
aI6
aI6
aI6
aI6
aI6
aI6
aI6
aI6
aI6
aI6
aI6
aI6
aI6
aI6
aI6
aI6
aI6
aI6
aI6
aI6
aI6
aI6
aI6
aI6
aI6
aI6
aI6
aI6
aI6
aI6
aI6
aI6
aI6
aI6
aI6
aI6
aI6
aI6
aI6
aI6
aI6
aI6
aI6
aI6
aI6
aI6
aI6
aI6
aI6
aI6
aI6
aI6
aI6
aI6
aI6
aI6
aI6
aI6
aI6
aI6
aI6
aI6
aI6
aI6
aI6
aI6
aI6
aI6
aI6
aI6
aI6
aI6
aI6
aI6
aI6
aI6
aI6
aI6
aI6
aI6
aI6
aI6
aI6
aI6
aI6
aI6
aI6
aI6
aI6
aI6
aI6
aI6
aI6
aI6
aI6
aI6
aI6
aI6
aI6
aI6
aI6
aI6
aI6
aI6
aI6
aI6
aI6
aI6
aI6
aI6
aI6
aI6
aI6
aI6
aI6
aI6
aI6
aI6
aI6
aI6
aI6
aI6
aI6
aI6
aI6
aI6
aI6
aI6
aI6
aI6
aI6
aI6
aI6
aI6
aI6
aI6
aI6
aI6
aI6
aI6
aI6
aI6
aI6
aI6
aI6
aI6
aI6
aI6
aI6
aI6
aI6
aI6
aI6
aI6
aI6
aI6
aI6
aI6
aI6
aI6
aI6
aI6
aI6
aI6
aI6
aI6
aI6
aI6
aI6
aI6
aI6
aI6
aI6
aI6
aI6
aI6
aI6
aI6
aI6
aI6
aI6
aI6
aI6
aI6
aI6
aI6
aI6
aI6
aI6
aI6
aI6
aI6
aI6
aI6
aI6
aI6
aI6
aI6
aI6
aI6
aI6
aI6
aI6
aI6
aI6
aI6
aI6
aI6
aI6
aI6
aI6
aI6
aI6
aI6
aI6
aI6
aI6
aI6
aI6
aI6
aI6
aI6
aI6
aI6
aI6
aI6
aI6
aI6
aI6
aI6
aI6
aI6
aI6
aI6
aI6
aI6
aI6
aI6
aI6
aI6
aI6
aI6
aI6
aI6
aI6
aI6
aI6
aI6
aI6
aI6
aI6
aI6
aI6
aI6
aI6
aI6
aI6
aI6
aI6
aI6
aI6
aI6
aI6
aI6
aI6
aI6
aI6
aI6
aI6
aI6
aI6
aI6
aI6
aI6
aI6
aI6
aI6
aI6
aI6
aI6
aI6
aI6
aI6
aI6
aI6
aI6
aI6
aI6
aI6
aI6
aI6
aI6
aI6
aI6
aI6
aI6
aI6
aI6
aI6
aI6
aI6
aI6
aI6
aI6
aI6
aI6
aI6
aI6
aI6
aI6
aI6
aI6
aI6
aI6
aI6
aI6
aI6
aI6
aI6
aI6
aI6
aI6
aI6
aI6
aI6
aI6
aI6
aI6
aI6
aI6
aI6
aI6
aI6
aI6
aI6
aI6
aI6
aI6
aI6
aI6
aI6
aI6
aI6
aI6
aI6
aI6
aI6
aI6
aI6
aI6
aI6
aI6
aI6
aI6
aI6
aI6
aI6
aI6
aI6
aI6
aI6
aI6
aI6
aI6
aI6
aI6
aI6
aI6
aI6
aI6
aI6
aI6
aI6
aI6
aI6
aI6
aI6
aI6
aI6
aI6
aI6
aI6
aI6
aI6
aI6
aI6
aI6
aI6
aI6
aI6
aI6
aI6
aI6
aI6
aI6
aI6
aI6
aI6
aI6
aI6
aI6
aI6
aI6
aI6
aI6
aI6
aI6
aI6
aI6
aI6
aI6
aI6
aI6
aI6
aI6
aI6
aI6
aI6
aI6
aI6
aI6
aI6
aI6
aI6
aI6
aI6
aI6
aI6
aI6
aI6
aI6
aI6
aI6
aI6
aI6
aI6
aI6
aI6
aI6
aI6
aI6
aI6
aI6
aI6
aI6
aI6
aI6
aI6
aI6
aI6
aI6
aI6
aI6
aI6
aI6
aI6
aI6
aI6
aI6
aI6
aI6
aI6
aI6
aI6
aI6
aI6
aI6
aI6
aI6
aI6
aI6
aI6
aI6
aI6
aI6
aI6
aI6
aI6
aI6
aI6
aI6
aI6
aI6
aI6
aI6
aI6
aI6
aI6
aI6
aI6
aI6
aI6
aI6
aI6
aI6
aI6
aI6
aI6
aI6
aI6
aI6
aI6
aI6
aI6
aI6
aI6
aI6
aI6
aI6
aI6
aI6
aI6
aI6
aI6
aI6
aI6
aI6
aI6
aI6
aI6
aI6
aI6
aI6
aI6
aI6
aI6
aI6
aI6
aI6
aI6
aI6
aI6
aI6
aI6
aI6
aI6
aI6
aI6
aI6
aI6
aI6
aI6
aI6
aI6
aI6
aI6
aI6
aI6
aI6
aI6
aI6
aI6
aI6
aI6
aI6
aI6
aI6
aI6
aI6
aI6
aI6
aI6
aI6
aI6
aI6
aI6
aI6
aI6
aI6
aI6
aI6
aI6
aI6
aI6
aI6
aI6
aI6
aI6
aI6
aI6
aI6
aI6
aI6
aI6
aI6
aI6
aI6
aI6
aI6
aI6
aI6
aI6
aI6
aI6
aI6
aI6
aI6
aI6
aI6
aI6
aI6
aI6
aI6
aI6
aI6
aI6
aI6
aI6
aI6
aI6
aI6
aI6
aI6
aI6
aI6
aI6
aI6
aI6
aI6
aI6
aI6
aI6
aI6
aI6
aI6
aI6
aI6
aI6
aI6
aI6
aI6
aI6
aI6
aI6
aI6
aI6
aI6
aI6
aI6
aI6
aI6
aI6
aI6
aI6
aI6
aI6
aI6
aI6
aI6
aI6
aI6
aI6
aI6
aI6
aI6
aI6
aI6
aI6
aI6
aI6
aI6
aI6
aI6
aI6
aI6
aI6
aI6
aI6
aI6
aI6
aI6
aI6
aI6
aI6
aI6
aI6
aI6
aI6
aI6
aI6
aI6
aI6
aI6
aI6
aI6
aI6
aI6
aI6
aI6
aI6
aI6
aI6
aI6
aI6
aI6
aI6
aI6
aI6
aI6
aI6
aI6
aI6
aI6
aI6
aI6
aI6
aI6
aI6
aI6
aI6
aI6
aI6
aI6
aI6
aI6
aI6
aI6
aI6
aI6
aI6
aI6
aI6
aI6
aI6
aI6
aI6
aI6
aI6
aI6
aI6
aI6
aI6
aI6
aI6
aI6
aI6
aI6
aI6
aI6
aI6
aI6
aI6
aI6
aI6
aI6
aI6
aI6
aI6
aI6
aI6
aI6
aI6
aI6
aI6
aI6
aI6
aI6
aI6
aI6
aI6
aI6
aI6
aI6
aI6
aI6
aI6
aI6
aI6
aI6
aI6
aI6
aI6
aI6
aI6
aI6
aI6
aI6
aI6
aI6
aI6
aI6
aI6
aI6
aI6
aI6
aI6
aI6
aI6
aI6
aI6
aI6
aI6
aI6
aI6
aI6
aI6
aI6
aI6
aI6
aI6
aI6
aI6
aI6
aI6
aI6
aI6
aI6
aI6
aI6
aI6
aI6
aI6
aI6
aI6
aI6
aI6
aI6
aI6
aI6
aI6
aI6
aI6
aI6
aI6
aI6
aI6
aI6
aI6
aI6
aI6
aI6
aI6
aI6
aI6
aI6
aI6
aI6
aI6
aI6
aI6
aI6
aI6
aI6
aI6
aI6
aI6
aI6
aI6
aI6
aI6
aI6
aI6
aI6
aI6
aI6
aI6
aI6
aI6
aI6
aI6
aI6
aI6
aI6
aI6
aI6
aI6
aI6
aI6
aI6
aI6
aI6
aI6
aI6
aI6
aI6
aI6
aI6
aI6
aI6
aI6
aI6
aI6
aI6
aI6
aI6
aI6
aI6
aI6
aI6
aI6
aI6
aI6
aI6
aI6
aI6
aI6
aI6
aI6
aI6
aI6
aI6
aI6
aI6
aI6
aI6
aI6
aI6
aI6
aI6
aI6
aI6
aI6
aI6
aI6
aI6
aI6
aI6
aI6
aI6
aI6
aI6
aI6
aI6
aI6
aI6
aI6
aI6
aI6
aI6
aI6
aI6
aI6
aI6
aI6
aI6
aI6
aI6
aI6
aI6
aI6
aI6
aI6
aI6
aI6
aI6
aI6
aI6
aI6
aI6
aI6
aI6
aI6
aI6
aI6
aI6
aI6
aI6
aI6
aI6
aI6
aI6
aI6
aI6
aI6
aI6
aI6
aI6
aI6
aI6
aI6
aI6
aI6
aI6
aI6
aI6
aI6
aI6
aI6
aI6
aI6
aI6
aI6
aI6
aI6
aI6
aI6
aI6
aI6
aI6
aI6
aI6
aI6
aI6
aI6
aI6
aI6
aI6
aI6
aI6
aI6
aI6
aI6
aI6
aI6
aI6
aI6
aI6
aI6
aI6
aI6
aI6
aI6
aI6
aI6
aI6
aI6
aI6
aI6
aI6
aI6
aI6
aI6
aI6
aI6
aI6
aI6
aI6
aI6
aI6
aI6
aI6
aI6
aI6
aI6
aI6
aI6
aI6
aI6
aI6
aI6
aI6
aI6
aI6
aI6
aI6
aI6
aI6
aI6
aI6
aI6
aI6
aI6
aI6
aI6
aI6
aI6
aI6
aI6
aI6
aI6
aI6
aI6
aI6
aa(lp2
I0
aI0
aI0
aI0
aI0
aI0
aI0
aI0
aI0
aI0
aI0
aI0
aI0
aI0
aI0
aI0
aI0
aI0
aI0
aI0
aI0
aI0
aI0
aI0
aI0
aI0
aI0
aI0
aI0
aI0
aI0
aI0
aI0
aI0
aI0
aI0
aI0
aI0
aI1
aI1
aI1
aI1
aI1
aI1
aI1
aI1
aI1
aI1
aI1
aI1
aI1
aI1
aI1
aI1
aI1
aI1
aI1
aI1
aI1
aI1
aI1
aI1
aI1
aI1
aI1
aI1
aI1
aI1
aI1
aI1
aI1
aI1
aI1
aI1
aI1
aI1
aI1
aI1
aI1
aI1
aI1
aI1
aI1
aI1
aI1
aI1
aI1
aI1
aI1
aI1
aI1
aI1
aI1
aI1
aI1
aI1
aI1
aI1
aI1
aI1
aI1
aI1
aI1
aI1
aI1
aI1
aI1
aI1
aI1
aI1
aI1
aI1
aI1
aI1
aI1
aI1
aI1
aI1
aI1
aI1
aI1
aI1
aI1
aI1
aI1
aI1
aI1
aI1
aI1
aI1
aI1
aI1
aI1
aI1
aI1
aI1
aI1
aI1
aI1
aI1
aI2
aI2
aI2
aI2
aI2
aI2
aI2
aI2
aI2
aI2
aI2
aI2
aI2
aI2
aI2
aI2
aI2
aI2
aI2
aI2
aI2
aI2
aI2
aI2
aI2
aI2
aI2
aI2
aI2
aI2
aI2
aI2
aI2
aI2
aI2
aI2
aI2
aI2
aI2
aI2
aI2
aI2
aI2
aI2
aI2
aI2
aI2
aI3
aI3
aI3
aI3
aI3
aI3
aI3
aI3
aI3
aI3
aI3
aI3
aI3
aI3
aI3
aI3
aI3
aI3
aI3
aI3
aI3
aI3
aI3
aI3
aI3
aI3
aI3
aI3
aI3
aI3
aI3
aI3
aI3
aI3
aI3
aI3
aI3
aI3
aI3
aI3
aI3
aI3
aI3
aI3
aI3
aI3
aI3
aI3
aI3
aI3
aI3
aI3
aI3
aI3
aI3
aI3
aI3
aI3
aI3
aI3
aI3
aI3
aI3
aI3
aI3
aI3
aI3
aI3
aI3
aI3
aI3
aI3
aI3
aI3
aI3
aI3
aI3
aI3
aI3
aI3
aI3
aI3
aI3
aI3
aI3
aI3
aI3
aI3
aI3
aI3
aI3
aI3
aI3
aI3
aI3
aI3
aI3
aI3
aI3
aI3
aI3
aI3
aI3
aI3
aI3
aI3
aI3
aI3
aI3
aI3
aI3
aI3
aI3
aI3
aI3
aI3
aI3
aI3
aI3
aI3
aI3
aI3
aI3
aI3
aI3
aI3
aI3
aI3
aI3
aI3
aI3
aI3
aI3
aI3
aI3
aI3
aI3
aI3
aI3
aI3
aI3
aI3
aI3
aI3
aI3
aI3
aI3
aI3
aI3
aI3
aI3
aI3
aI3
aI3
aI3
aI3
aI3
aI3
aI3
aI3
aI3
aI3
aI3
aI3
aI3
aI3
aI3
aI3
aI3
aI3
aI3
aI3
aI3
aI3
aI3
aI3
aI3
aI3
aI3
aI3
aI3
aI3
aI3
aI3
aI3
aI3
aI3
aI3
aI3
aI3
aI3
aI3
aI3
aI3
aI3
aI3
aI3
aI3
aI3
aI3
aI3
aI3
aI3
aI3
aI3
aI3
aI3
aI3
aI3
aI3
aI3
aI3
aI3
aI3
aI3
aI3
aI3
aI3
aI3
aI3
aI3
aI3
aI3
aI3
aI3
aI3
aI3
aI3
aI3
aI3
aI3
aI3
aI3
aI3
aI3
aI3
aI3
aI3
aI3
aI3
aI3
aI3
aI3
aI3
aI3
aI3
aI3
aI3
aI3
aI3
aI3
aI3
aI3
aI3
aI3
aI3
aI3
aI3
aI3
aI3
aI3
aI3
aI3
aI3
aI3
aI3
aI3
aI3
aI3
aI3
aI3
aI3
aI3
aI3
aI3
aI3
aI3
aI3
aI3
aI3
aI3
aI3
aI3
aI3
aI3
aI3
aI3
aI3
aI3
aI3
aI3
aI3
aI3
aI3
aI3
aI3
aI3
aI3
aI3
aI3
aI3
aI3
aI3
aI3
aI3
aI3
aI3
aI3
aI3
aI3
aI3
aI3
aI3
aI3
aI3
aI3
aI3
aI3
aI3
aI3
aI3
aI3
aI3
aI3
aI3
aI3
aI3
aI3
aI3
aI3
aI3
aI3
aI3
aI3
aI3
aI3
aI3
aI3
aI3
aI3
aI3
aI3
aI3
aI3
aI3
aI3
aI3
aI3
aI3
aI3
aI3
aI3
aI3
aI3
aI3
aI3
aI3
aI3
aI3
aI3
aI3
aI3
aI3
aI3
aI3
aI3
aI3
aI3
aI3
aI3
aI3
aI3
aI3
aI3
aI3
aI3
aI3
aI3
aI3
aI3
aI3
aI3
aI3
aI3
aI3
aI3
aI3
aI3
aI3
aI3
aI3
aI3
aI3
aI3
aI3
aI3
aI3
aI3
aI3
aI3
aI3
aI3
aI3
aI3
aI3
aI3
aI3
aI3
aI3
aI3
aI3
aI3
aI3
aI3
aI3
aI3
aI3
aI3
aI3
aI3
aI3
aI3
aI3
aI3
aI3
aI3
aI3
aI3
aI3
aI3
aI3
aI3
aI3
aI3
aI3
aI3
aI3
aI3
aI3
aI3
aI3
aI3
aI3
aI3
aI3
aI3
aI3
aI3
aI3
aI3
aI3
aI3
aI3
aI3
aI3
aI3
aI3
aI3
aI3
aI3
aI4
aI4
aI4
aI4
aI4
aI4
aI4
aI4
aI4
aI4
aI4
aI4
aI4
aI4
aI4
aI4
aI4
aI4
aI4
aI4
aI4
aI4
aI4
aI4
aI4
aI4
aI4
aI4
aI4
aI4
aI4
aI4
aI4
aI4
aI4
aI4
aI4
aI4
aI4
aI4
aI4
aI4
aI4
aI4
aI4
aI4
aI4
aI4
aI4
aI4
aI4
aI4
aI4
aI4
aI4
aI4
aI4
aI4
aI4
aI4
aI4
aI4
aI4
aI4
aI4
aI4
aI4
aI4
aI4
aI4
aI4
aI4
aI4
aI4
aI4
aI4
aI4
aI4
aI4
aI4
aI4
aI4
aI4
aI4
aI4
aI4
aI4
aI4
aI4
aI4
aI4
aI4
aI4
aI4
aI4
aI4
aI4
aI4
aI4
aI4
aI4
aI4
aI4
aI4
aI4
aI4
aI4
aI4
aI4
aI4
aI4
aI4
aI4
aI4
aI4
aI4
aI4
aI4
aI4
aI4
aI4
aI4
aI4
aI4
aI4
aI4
aI4
aI4
aI4
aI4
aI4
aI4
aI4
aI4
aI4
aI4
aI4
aI4
aI4
aI4
aI4
aI4
aI4
aI4
aI4
aI4
aI4
aI4
aI4
aI4
aI4
aI4
aI4
aI4
aI4
aI4
aI4
aI4
aI4
aI4
aI4
aI4
aI4
aI4
aI4
aI4
aI4
aI4
aI4
aI4
aI4
aI4
aI4
aI4
aI4
aI4
aI4
aI4
aI4
aI4
aI4
aI4
aI4
aI4
aI4
aI4
aI4
aI4
aI4
aI4
aI4
aI4
aI4
aI4
aI4
aI4
aI4
aI4
aI4
aI4
aI4
aI4
aI4
aI4
aI4
aI4
aI4
aI4
aI4
aI4
aI4
aI4
aI4
aI4
aI4
aI4
aI4
aI4
aI4
aI4
aI4
aI4
aI4
aI4
aI4
aI4
aI4
aI4
aI4
aI4
aI4
aI4
aI4
aI4
aI4
aI4
aI4
aI4
aI4
aI4
aI4
aI4
aI4
aI4
aI4
aI4
aI4
aI4
aI4
aI4
aI4
aI4
aI4
aI4
aI4
aI4
aI4
aI4
aI4
aI4
aI4
aI4
aI4
aI4
aI4
aI4
aI4
aI4
aI4
aI4
aI4
aI4
aI4
aI4
aI4
aI4
aI4
aI4
aI4
aI4
aI4
aI4
aI4
aI4
aI4
aI4
aI4
aI4
aI4
aI4
aI4
aI4
aI4
aI4
aI4
aI4
aI4
aI4
aI4
aI4
aI4
aI4
aI4
aI4
aI4
aI4
aI4
aI4
aI4
aI4
aI4
aI4
aI4
aI4
aI4
aI4
aI4
aI4
aI4
aI4
aI4
aI4
aI4
aI4
aI4
aI4
aI4
aI4
aI4
aI4
aI4
aI4
aI4
aI4
aI4
aI4
aI4
aI4
aI4
aI4
aI4
aI4
aI4
aI4
aI4
aI4
aI4
aI4
aI4
aI4
aI4
aI4
aI4
aI4
aI4
aI4
aI4
aI4
aI4
aI4
aI4
aI4
aI4
aI4
aI4
aI4
aI4
aI4
aI4
aI4
aI4
aI4
aI4
aI4
aI4
aI4
aI4
aI4
aI4
aI4
aI4
aI4
aI4
aI4
aI4
aI4
aI4
aI4
aI4
aI4
aI4
aI4
aI4
aI4
aI4
aI4
aI4
aI4
aI4
aI4
aI4
aI4
aI4
aI4
aI4
aI4
aI4
aI4
aI4
aI4
aI4
aI4
aI4
aI4
aI4
aI4
aI4
aI4
aI4
aI4
aI4
aI4
aI4
aI4
aI4
aI4
aI4
aI4
aI4
aI4
aI4
aI4
aI4
aI4
aI4
aI4
aI4
aI4
aI4
aI4
aI4
aI4
aI4
aI4
aI4
aI4
aI4
aI4
aI4
aI4
aI4
aI4
aI4
aI4
aI4
aI4
aI4
aI4
aI4
aI4
aI4
aI4
aI4
aI4
aI4
aI4
aI4
aI4
aI4
aI4
aI4
aI4
aI4
aI4
aI4
aI4
aI4
aI4
aI4
aI4
aI4
aI4
aI4
aI4
aI4
aI4
aI4
aI4
aI4
aI4
aI4
aI4
aI4
aI4
aI4
aI4
aI4
aI4
aI4
aI4
aI4
aI4
aI4
aI4
aI4
aI4
aI4
aI4
aI4
aI4
aI4
aI4
aI4
aI4
aI4
aI4
aI4
aI4
aI4
aI4
aI4
aI4
aI4
aI4
aI4
aI4
aI4
aI4
aI4
aI4
aI4
aI4
aI4
aI4
aI4
aI4
aI4
aI4
aI4
aI4
aI4
aI4
aI4
aI4
aI4
aI4
aI4
aI4
aI4
aI4
aI4
aI4
aI4
aI4
aI4
aI4
aI4
aI4
aI4
aI4
aI4
aI4
aI4
aI4
aI4
aI4
aI4
aI4
aI4
aI4
aI4
aI4
aI4
aI4
aI4
aI4
aI4
aI4
aI4
aI4
aI4
aI4
aI4
aI4
aI4
aI4
aI4
aI4
aI4
aI4
aI4
aI5
aI5
aI5
aI5
aI5
aI5
aI5
aI5
aI5
aI5
aI5
aI5
aI5
aI5
aI5
aI5
aI5
aI5
aI5
aI5
aI5
aI5
aI5
aI5
aI5
aI5
aI5
aI5
aI5
aI5
aI5
aI5
aI5
aI5
aI5
aI5
aI5
aI5
aI5
aI5
aI5
aI5
aI5
aI5
aI5
aI5
aI5
aI5
aI5
aI5
aI5
aI5
aI5
aI5
aI5
aI5
aI5
aI5
aI5
aI5
aI5
aI5
aI5
aI5
aI5
aI5
aI5
aI5
aI5
aI5
aI5
aI5
aI5
aI5
aI5
aI5
aI5
aI5
aI5
aI5
aI5
aI5
aI5
aI5
aI5
aI5
aI5
aI5
aI5
aI5
aI5
aI5
aI5
aI5
aI5
aI5
aI5
aI5
aI5
aI5
aI5
aI5
aI5
aI5
aI5
aI5
aI5
aI5
aI5
aI5
aI5
aI5
aI5
aI5
aI5
aI5
aI5
aI5
aI5
aI5
aI5
aI5
aI5
aI5
aI5
aI5
aI5
aI5
aI5
aI5
aI5
aI5
aI5
aI5
aI5
aI5
aI5
aI5
aI5
aI5
aI5
aI5
aI5
aI5
aI5
aI5
aI5
aI5
aI5
aI5
aI5
aI5
aI5
aI5
aI5
aI5
aI5
aI5
aI5
aI5
aI5
aI5
aI5
aI5
aI5
aI5
aI5
aI5
aI5
aI5
aI5
aI5
aI5
aI5
aI5
aI5
aI5
aI5
aI5
aI5
aI5
aI5
aI5
aI5
aI5
aI5
aI5
aI5
aI5
aI5
aI5
aI5
aI5
aI5
aI5
aI5
aI5
aI5
aI5
aI5
aI5
aI5
aI5
aI5
aI5
aI5
aI5
aI5
aI5
aI5
aI5
aI5
aI5
aI5
aI5
aI5
aI5
aI5
aI5
aI5
aI5
aI5
aI5
aI5
aI5
aI5
aI5
aI5
aI5
aI5
aI5
aI5
aI5
aI5
aI5
aI5
aI5
aI5
aI5
aI5
aI5
aI5
aI5
aI5
aI5
aI5
aI5
aI5
aI5
aI5
aI5
aI5
aI5
aI5
aI5
aI5
aI5
aI5
aI5
aI5
aI5
aI5
aI5
aI5
aI5
aI5
aI5
aI5
aI5
aI5
aI5
aI5
aI5
aI5
aI5
aI5
aI5
aI5
aI5
aI5
aI5
aI5
aI5
aI5
aI5
aI5
aI5
aI5
aI5
aI5
aI5
aI5
aI5
aI5
aI5
aI5
aI5
aI5
aI5
aI5
aI5
aI5
aI5
aI5
aI5
aI5
aI5
aI5
aI5
aI5
aI5
aI5
aI5
aI5
aI5
aI5
aI5
aI5
aI5
aI5
aI5
aI5
aI5
aI5
aI5
aI5
aI5
aI5
aI5
aI5
aI5
aI5
aI5
aI5
aI5
aI5
aI5
aI5
aI5
aI5
aI5
aI5
aI5
aI5
aI5
aI5
aI5
aI5
aI5
aI5
aI5
aI5
aI5
aI5
aI5
aI5
aI5
aI5
aI5
aI5
aI5
aI5
aI5
aI5
aI5
aI5
aI5
aI5
aI5
aI5
aI5
aI5
aI5
aI5
aI5
aI5
aI5
aI5
aI5
aI5
aI5
aI5
aI5
aI5
aI5
aI5
aI5
aI5
aI5
aI5
aI5
aI5
aI5
aI5
aI5
aI5
aI5
aI5
aI5
aI5
aI5
aI5
aI5
aI5
aI5
aI5
aI5
aI5
aI5
aI5
aI5
aI5
aI5
aI5
aI5
aI5
aI5
aI5
aI5
aI5
aI5
aI5
aI5
aI5
aI5
aI5
aI5
aI5
aI5
aI5
aI5
aI5
aI5
aI5
aI5
aI5
aI5
aI5
aI5
aI5
aI5
aI5
aI5
aI5
aI5
aI5
aI5
aI5
aI5
aI5
aI5
aI5
aI5
aI5
aI5
aI5
aI5
aI5
aI5
aI5
aI5
aI5
aI5
aI5
aI5
aI5
aI5
aI5
aI5
aI5
aI5
aI5
aI5
aI5
aI5
aI5
aI5
aI5
aI5
aI5
aI5
aI5
aI5
aI5
aI5
aI5
aI5
aI5
aI5
aI5
aI5
aI5
aI5
aI5
aI5
aI5
aI5
aI5
aI5
aI5
aI5
aI5
aI5
aI5
aI5
aI5
aI5
aI5
aI5
aI5
aI5
aI5
aI5
aI5
aI5
aI5
aI5
aI5
aI5
aI5
aI5
aI5
aI5
aI5
aI5
aI5
aI5
aI5
aI5
aI5
aI5
aI5
aI5
aI5
aI5
aI5
aI5
aI5
aI5
aI5
aI5
aI5
aI5
aI5
aI5
aI5
aI5
aI5
aI5
aI5
aI5
aI5
aI5
aI5
aI5
aI5
aI5
aI5
aI5
aI5
aI5
aI5
aI5
aI5
aI5
aI5
aI5
aI5
aI5
aI5
aI5
aI5
aI5
aI5
aI5
aI5
aI5
aI5
aI5
aI5
aI5
aI5
aI5
aI5
aI5
aI5
aI5
aI5
aI5
aI5
aI5
aI5
aI5
aI5
aI5
aI5
aI5
aI5
aI5
aI5
aI5
aI5
aI5
aI5
aI5
aI5
aI5
aI5
aI5
aI5
aI5
aI5
aI5
aI5
aI5
aI5
aI5
aI5
aI5
aI5
aI5
aI5
aI5
aI5
aI5
aI5
aI5
aI5
aI5
aI5
aI5
aI5
aI5
aI5
aI5
aI5
aI5
aI5
aI5
aI5
aI5
aI5
aI5
aI5
aI5
aI5
aI5
aI5
aI5
aI5
aI5
aI5
aI5
aI5
aI5
aI5
aI5
aI5
aI5
aI5
aI5
aI5
aI5
aI5
aI5
aI5
aI5
aI5
aI5
aI5
aI5
aI5
aI5
aI5
aI5
aI5
aI5
aI5
aI5
aI5
aI5
aI5
aI5
aI5
aI5
aI5
aI5
aI5
aI5
aI5
aI5
aI5
aI5
aI5
aI5
aI5
aI5
aI5
aI5
aI5
aI5
aI5
aI5
aI5
aI5
aI5
aI5
aI5
aI5
aI5
aI5
aI5
aI5
aI5
aI5
aI5
aI5
aI5
aI5
aI5
aI5
aI5
aI5
aI5
aI5
aI5
aI5
aI5
aI5
aI5
aI5
aI5
aI5
aI5
aI5
aI5
aI5
aI5
aI5
aI5
aI5
aI5
aI5
aI5
aI5
aI5
aI5
aI5
aI5
aI5
aI5
aI5
aI5
aI5
aI5
aI5
aI5
aI5
aI5
aI5
aI5
aI5
aa(lp3
I0
aI0
aI0
aI0
aI0
aI0
aI0
aI0
aI0
aI0
aI0
aI0
aI0
aI0
aI0
aI0
aI0
aI0
aI0
aI0
aI0
aI0
aI0
aI0
aI0
aI0
aI0
aI0
aI0
aI0
aI0
aI0
aI0
aI0
aI0
aI0
aI0
aI0
aI0
aI0
aI0
aI0
aI0
aI0
aI0
aI0
aI0
aI0
aI0
aI0
aI0
aI0
aI0
aI0
aI0
aI0
aI0
aI0
aI0
aI0
aI0
aI0
aI0
aI0
aI0
aI0
aI0
aI0
aI0
aI0
aI0
aI0
aI0
aI0
aI0
aI0
aI0
aI0
aI0
aI0
aI0
aI0
aI0
aI0
aI0
aI0
aI0
aI0
aI0
aI0
aI0
aI0
aI0
aI0
aI0
aI0
aI0
aI0
aI0
aI0
aI0
aI0
aI0
aI0
aI0
aI0
aI0
aI0
aI0
aI0
aI0
aI0
aI0
aI0
aI0
aI0
aI0
aI0
aI0
aI0
aI0
aI0
aI0
aI0
aI0
aI0
aI0
aI0
aI0
aI0
aI0
aI0
aI0
aI0
aI0
aI0
aI0
aI0
aI0
aI0
aI0
aI0
aI0
aI0
aI0
aI0
aI0
aI0
aI0
aI0
aI0
aI0
aI0
aI0
aI0
aI0
aI0
aI0
aI0
aI0
aI0
aI0
aI0
aI0
aI0
aI0
aI0
aI0
aI0
aI0
aI0
aI0
aI0
aI0
aI0
aI0
aI0
aI0
aI0
aI0
aI0
aI0
aI0
aI0
aI0
aI0
aI0
aI0
aI0
aI0
aI0
aI0
aI0
aI0
aI0
aI0
aI0
aI0
aI0
aI0
aI0
aI0
aI0
aI0
aI0
aI0
aI0
aI0
aI0
aI0
aI0
aI0
aI0
aI0
aI0
aI0
aI0
aI0
aI0
aI0
aI0
aI0
aI0
aI0
aI0
aI0
aI0
aI0
aI0
aI0
aI0
aI0
aI0
aI0
aI0
aI0
aI0
aI0
aI0
aI0
aI0
aI0
aI0
aI0
aI0
aI0
aI0
aI0
aI0
aI0
aI0
aI0
aI0
aI0
aI0
aI0
aI0
aI0
aI0
aI0
aI0
aI0
aI0
aI0
aI0
aI0
aI0
aI0
aI0
aI0
aI0
aI1
aI1
aI1
aI1
aI1
aI1
aI1
aI1
aI1
aI1
aI1
aI1
aI1
aI1
aI1
aI1
aI1
aI1
aI1
aI1
aI1
aI1
aI1
aI1
aI1
aI1
aI1
aI1
aI1
aI1
aI1
aI1
aI1
aI1
aI1
aI1
aI1
aI1
aI1
aI1
aI1
aI1
aI1
aI1
aI1
aI1
aI1
aI1
aI1
aI1
aI1
aI1
aI1
aI1
aI1
aI1
aI1
aI1
aI1
aI1
aI1
aI1
aI1
aI1
aI1
aI1
aI1
aI1
aI1
aI1
aI1
aI1
aI1
aI1
aI1
aI1
aI1
aI1
aI1
aI1
aI1
aI1
aI1
aI1
aI1
aI1
aI1
aI1
aI1
aI1
aI1
aI1
aI1
aI1
aI1
aI1
aI1
aI1
aI1
aI1
aI1
aI1
aI1
aI1
aI1
aI1
aI1
aI1
aI1
aI1
aI1
aI1
aI1
aI1
aI1
aI1
aI1
aI1
aI1
aI1
aI1
aI1
aI1
aI1
aI1
aI1
aI1
aI1
aI1
aI1
aI1
aI1
aI1
aI1
aI1
aI1
aI1
aI1
aI1
aI1
aI1
aI1
aI1
aI1
aI1
aI1
aI1
aI1
aI1
aI1
aI1
aI1
aI1
aI1
aI1
aI1
aI1
aI1
aI1
aI1
aI1
aI1
aI1
aI1
aI1
aI1
aI1
aI1
aI1
aI1
aI1
aI1
aI1
aI1
aI1
aI1
aI1
aI1
aI1
aI1
aI1
aI1
aI1
aI1
aI1
aI1
aI1
aI1
aI1
aI1
aI1
aI1
aI1
aI1
aI1
aI1
aI1
aI1
aI1
aI1
aI1
aI1
aI1
aI1
aI1
aI1
aI1
aI1
aI1
aI1
aI1
aI1
aI1
aI1
aI1
aI1
aI1
aI1
aI1
aI1
aI1
aI1
aI1
aI1
aI1
aI1
aI1
aI1
aI1
aI1
aI1
aI1
aI1
aI1
aI1
aI1
aI1
aI1
aI1
aI1
aI1
aI1
aI1
aI1
aI1
aI1
aI1
aI1
aI1
aI1
aI1
aI1
aI1
aI1
aI1
aI1
aI1
aI1
aI1
aI1
aI1
aI1
aI1
aI1
aI1
aI1
aI1
aI1
aI1
aI1
aI1
aI1
aI1
aI1
aI1
aI1
aI1
aI1
aI1
aI1
aI1
aI1
aI1
aI1
aI1
aI1
aI1
aI1
aI1
aI1
aI1
aI1
aI1
aI1
aI1
aI1
aI1
aI1
aI1
aI1
aI1
aI1
aI1
aI1
aI1
aI1
aI1
aI1
aI1
aI1
aI1
aI1
aI1
aI1
aI1
aI1
aI1
aI1
aI1
aI1
aI1
aI1
aI1
aI1
aI1
aI1
aI1
aI1
aI1
aI1
aI1
aI1
aI1
aI1
aI1
aI1
aI1
aI1
aI1
aI1
aI1
aI1
aI1
aI1
aI1
aI1
aI1
aI1
aI1
aI1
aI1
aI1
aI1
aI1
aI1
aI1
aI1
aI1
aI1
aI1
aI1
aI1
aI1
aI1
aI1
aI1
aI1
aI1
aI1
aI1
aI1
aI1
aI1
aI1
aI1
aI1
aI1
aI1
aI1
aI1
aI1
aI1
aI1
aI1
aI1
aI1
aI1
aI1
aI1
aI1
aI1
aI1
aI1
aI1
aI1
aI1
aI1
aI1
aI1
aI1
aI1
aI1
aI1
aI1
aI2
aI2
aI2
aI2
aI2
aI2
aI2
aI2
aI2
aI2
aI2
aI2
aI2
aI2
aI3
aI4
aI4
aI4
aI4
aI4
aI4
aI4
aI4
aI4
aI4
aI4
aI4
aI4
aI4
aI4
aI4
aI4
aI4
aI4
aI4
aI4
aI4
aI4
aI4
aI4
aI4
aI4
aI4
aI4
aI4
aI4
aI4
aI4
aI4
aI4
aI4
aI4
aI4
aI4
aI4
aI4
aI4
aI4
aI4
aI4
aI4
aI4
aI4
aI4
aI4
aI4
aI4
aI4
aI4
aI4
aI4
aI4
aI4
aI4
aI4
aI4
aI4
aI4
aI4
aI4
aI4
aI4
aI4
aI4
aI4
aI4
aI4
aI4
aI4
aI4
aI4
aI4
aI4
aI4
aI4
aI4
aI4
aI4
aI4
aI4
aI4
aI4
aI4
aI4
aI4
aI4
aI4
aI4
aI4
aI4
aI4
aI4
aI4
aI4
aI4
aI4
aI4
aI4
aI4
aI4
aI4
aI4
aI4
aI4
aI4
aI4
aI4
aI4
aI5
aI5
aI5
aI5
aI5
aI5
aI5
aI5
aI5
aI5
aI5
aI5
aI5
aI5
aI5
aI5
aI5
aI5
aI5
aI5
aI5
aI5
aI5
aI5
aI5
aI5
aI5
aI5
aI5
aI5
aI5
aI5
aI5
aI5
aI5
aI5
aI5
aI5
aI5
aI5
aI5
aI5
aI5
aI5
aI5
aI5
aI5
aI5
aI5
aI5
aI5
aI5
aI5
aI5
aI5
aI5
aI5
aI5
aI5
aI5
aI5
aI5
aI5
aI5
aI5
aI5
aI5
aI5
aI5
aI5
aI5
aI5
aI5
aI5
aI5
aI5
aI5
aI5
aI5
aI5
aI5
aI5
aI5
aI5
aI5
aI5
aI5
aI5
aI5
aI5
aI5
aI5
aI5
aI5
aI5
aI5
aI5
aI5
aI5
aI5
aI5
aI5
aI5
aI5
aI5
aI5
aI5
aI5
aI5
aI5
aI5
aI5
aI5
aI5
aI5
aI5
aI5
aI5
aI5
aI5
aI5
aI5
aI5
aI5
aI5
aI5
aI5
aI5
aI5
aI5
aI5
aI6
aI6
aI6
aI6
aI6
aI6
aI7
aI7
aI7
aI8
aI8
aI8
aI8
aI8
aI8
aI8
aI8
aI8
aI8
aI8
aI8
aI8
aI8
aI8
aI8
aI8
aI8
aI8
aI8
aI8
aI8
aI8
aI8
aI8
aI8
aI8
aI8
aI8
aI8
aI8
aI8
aI8
aI8
aI8
aI8
aI8
aI8
aI8
aI8
aI8
aI8
aI8
aI8
aI8
aI8
aI8
aI8
aI8
aI8
aI8
aI8
aI8
aI8
aI8
aI8
aI8
aI8
aI8
aI8
aI8
aI8
aI8
aI8
aI8
aI8
aI8
aI8
aI8
aI8
aI8
aI8
aI8
aI8
aI8
aI8
aI8
aI8
aI8
aI8
aI8
aI8
aI8
aI8
aI8
aI8
aI8
aI8
aI8
aI8
aI8
aI8
aI8
aI8
aI8
aI8
aI8
aI8
aI8
aI8
aI8
aI8
aI8
aI8
aI8
aI8
aI8
aI8
aI8
aI8
aI8
aI8
aI8
aI8
aI8
aI8
aI8
aI8
aI8
aI8
aI8
aI8
aI8
aI8
aI8
aI8
aI8
aI8
aI8
aI8
aI8
aI8
aI8
aI8
aI8
aI8
aI8
aI8
aI8
aI8
aI8
aI8
aI8
aI8
aI8
aI8
aI8
aI8
aI8
aI8
aI8
aI8
aI8
aI8
aI8
aI8
aI8
aI8
aI8
aI8
aI8
aI8
aI8
aI8
aI8
aI8
aI8
aI8
aI8
aI8
aI8
aI8
aI8
aI8
aI8
aI8
aI8
aI8
aI8
aI8
aI8
aI8
aI8
aI8
aI8
aI8
aI8
aI8
aI8
aI8
aI8
aI8
aI8
aI8
aI8
aI8
aI8
aI8
aI8
aI8
aI8
aI8
aI8
aI8
aI8
aI8
aI8
aI8
aI8
aI8
aI8
aI8
aI8
aI8
aI8
aI8
aI8
aI8
aI8
aI8
aI8
aI8
aI8
aI8
aI8
aI8
aI8
aI8
aI8
aI8
aI8
aI8
aI8
aI8
aI8
aI8
aI8
aI8
aI8
aI8
aI8
aI8
aI8
aI8
aI8
aI8
aI8
aI8
aI8
aI8
aI8
aI8
aI8
aI8
aI8
aI8
aI8
aI8
aI8
aI8
aI8
aI8
aI8
aI8
aI8
aI8
aI8
aI8
aI8
aI8
aI8
aI8
aI8
aI8
aI8
aI8
aI8
aI8
aI8
aI8
aI8
aI8
aI8
aI8
aI8
aI8
aI8
aI8
aI8
aI8
aI8
aI8
aI8
aI8
aI8
aI8
aI8
aI8
aI8
aI8
aI8
aI8
aI8
aI8
aI8
aI8
aI8
aI8
aI8
aI8
aI8
aI8
aI8
aI8
aI8
aI8
aI8
aI8
aI8
aI8
aI8
aI8
aI8
aI8
aI8
aI8
aI8
aI8
aI8
aI8
aI8
aI8
aI8
aI8
aI8
aI8
aI8
aI8
aI8
aI8
aI8
aI8
aI8
aI8
aI8
aI8
aI8
aI8
aI8
aI8
aI8
aI8
aI8
aI8
aI8
aI8
aI8
aI8
aI8
aI8
aI8
aI8
aI8
aI8
aI8
aI8
aI8
aI8
aI8
aI8
aI8
aI8
aI8
aI8
aI8
aI8
aI8
aI8
aI8
aI8
aI8
aI8
aI8
aI8
aI8
aI8
aI8
aI8
aI8
aI8
aI8
aI8
aI8
aI8
aI8
aI8
aI8
aI8
aI8
aI8
aI8
aI8
aI8
aI8
aI8
aI8
aI8
aI8
aI8
aI8
aI8
aI8
aI8
aI8
aI8
aI8
aI8
aI8
aI8
aI8
aI8
aI8
aI8
aI8
aI8
aI8
aI8
aI8
aI8
aI8
aI8
aI8
aI8
aI8
aI8
aI8
aI8
aI8
aI8
aI8
aI8
aI8
aI8
aI8
aI8
aI8
aI8
aI8
aI8
aI8
aI8
aI8
aI8
aI8
aI8
aI8
aI8
aI8
aI8
aI8
aI8
aI8
aI8
aI8
aI8
aI8
aI8
aI8
aI8
aI8
aI8
aI8
aI8
aI8
aI8
aI8
aI8
aI8
aI8
aI8
aI8
aI8
aI8
aI8
aI8
aI8
aI8
aI8
aI8
aI8
aI8
aI8
aI8
aI8
aI8
aI8
aI8
aI8
aI8
aI8
aI8
aI8
aI8
aI8
aI8
aI8
aI8
aI8
aI8
aI8
aI8
aI8
aI8
aI8
aI8
aI8
aI8
aI8
aI8
aI8
aI8
aI8
aI8
aI8
aI8
aI8
aI8
aI8
aI8
aI8
aI8
aI8
aI8
aI8
aI8
aI8
aI8
aI8
aI8
aI8
aI8
aI8
aI8
aI8
aI8
aI8
aI8
aI8
aI8
aI8
aI8
aI8
aI8
aI8
aI8
aI8
aI8
aI8
aI8
aI8
aI8
aI8
aI8
aI8
aI8
aI8
aI8
aI8
aI8
aI8
aI8
aI8
aI8
aI8
aI8
aI8
aI8
aI8
aI8
aI8
aI8
aI8
aI8
aI8
aI8
aI8
aI8
aI8
aI8
aI8
aI8
aI8
aI8
aI8
aI8
aI8
aI8
aI8
aI8
aI8
aI8
aI8
aI8
aI8
aI8
aI8
aI8
aI8
aI8
aI8
aI8
aI8
aI8
aI8
aI8
aI8
aI8
aI8
aI8
aI8
aI8
aI8
aI8
aI8
aI8
aI8
aI8
aI8
aI8
aI8
aI8
aI8
aI8
aI8
aI8
aI8
aI8
aI8
aI8
aI8
aI8
aI8
aI8
aI8
aI8
aI8
aI8
aI8
aI8
aI8
aI8
aI8
aI8
aI8
aI8
aI8
aI8
aI8
aI8
aI8
aI8
aI8
aI8
aI8
aI8
aI8
aI8
aI8
aI8
aI8
aI8
aI8
aI8
aI8
aI8
aI8
aI8
aI8
aI8
aI8
aI8
aI8
aI8
aI8
aI8
aI8
aI8
aI8
aI8
aI8
aI8
aI8
aI8
aI8
aI8
aI8
aI8
aI8
aI8
aI8
aI8
aI8
aI8
aI8
aI8
aI8
aI8
aI8
aI8
aI8
aI8
aI8
aI8
aI8
aI8
aI8
aI8
aI8
aI8
aI8
aI8
aI8
aI8
aI8
aI8
aI8
aI8
aI8
aI8
aI8
aI8
aI8
aI8
aI8
aI8
aI8
aI8
aI8
aI8
aI8
aI8
aI8
aI8
aI8
aI8
aI8
aI8
aI8
aI8
aI8
aI8
aI8
aI8
aI8
aI8
aI8
aI8
aI8
aI8
aI8
aI8
aI8
aI8
aI8
aI8
aI8
aI8
aI8
aI8
aI8
aI8
aI8
aI8
aI8
aI8
aI8
aI8
aI8
aI8
aI8
aI8
aI8
aI8
aI8
aI8
aI8
aI8
aI8
aI8
aI8
aI8
aI8
aI8
aI8
aI8
aI8
aI8
aI8
aI8
aI8
aI8
aI8
aI8
aI8
aI8
aI8
aI8
aI8
aI8
aI8
aI8
aI8
aI8
aI8
aI8
aI8
aI8
aI8
aI8
aI8
aI8
aI8
aI8
aI8
aI8
aI8
aI8
aI8
aI8
aI8
aI8
aI8
aI8
aI8
aI8
aI8
aI8
aI8
aI8
aI8
aI8
aI8
aI8
aI8
aI8
aI8
aI8
aI8
aI8
aI8
aI8
aI8
aI8
aI8
aI8
aI8
aI8
aI8
aI8
aI8
aI8
aI8
aI8
aI8
aI8
aI8
aI8
aI8
aI8
aI8
aI8
aI8
aI8
aI8
aI8
aI8
aI8
aI8
aI8
aI8
aI8
aI8
aI8
aI8
aI8
aI8
aI8
aI8
aI8
aI8
aI8
aI8
aI8
aI8
aI8
aI8
aI8
aI8
aI8
aI8
aI8
aI8
aI8
aI8
aI8
aI8
aI8
aI8
aI8
aI8
aI8
aI8
aI8
aI8
aI8
aI8
aI8
aI8
aI8
aI8
aI8
aI8
aI8
aI8
aI8
aI8
aI8
aI8
aI8
aI8
aI8
aI8
aI8
aI8
aI8
aI8
aI8
aI8
aI8
aI8
aI8
aI8
aI8
aI8
aI8
aI8
aI8
aI8
aI8
aI8
aI8
aI8
aI8
aI8
aI8
aI8
aI8
aI8
aI8
aI8
aI8
aI8
aI8
aI8
aI8
aI8
aI8
aI8
aI8
aI8
aI8
aI8
aI8
aI8
aI8
aI8
aI8
aI8
aI8
aI8
aI8
aI8
aI8
aI8
aI8
aI8
aI8
aI8
aI8
aI8
aI8
aI8
aI8
aI8
aI8
aI8
aI8
aI8
aI8
aI8
aI8
aI8
aI8
aI8
aI8
aI8
aI8
aI8
aI8
aI8
aI8
aI8
aI8
aI8
aI8
aI8
aI8
aI8
aI8
aI8
aI8
aI8
aI8
aI8
aI8
aI8
aI8
aI8
aI8
aI8
aI8
aI8
aI8
aI8
aI8
aI8
aI8
aI8
aI8
aI8
aI8
aI8
aI8
aI8
aI8
aI8
aI8
aI8
aI8
aI8
aI8
aI8
aI8
aI8
aI8
aI8
aI8
aa(lp4
I0
aI0
aI0
aI0
aI0
aI0
aI0
aI0
aI0
aI0
aI0
aI0
aI0
aI0
aI0
aI0
aI0
aI0
aI0
aI0
aI0
aI0
aI0
aI0
aI0
aI0
aI0
aI0
aI0
aI0
aI0
aI0
aI0
aI0
aI0
aI0
aI0
aI0
aI0
aI0
aI0
aI0
aI0
aI0
aI0
aI0
aI0
aI0
aI0
aI0
aI0
aI0
aI0
aI0
aI0
aI0
aI0
aI0
aI0
aI0
aI0
aI0
aI0
aI0
aI0
aI0
aI0
aI0
aI0
aI0
aI0
aI0
aI0
aI0
aI0
aI0
aI0
aI0
aI0
aI0
aI0
aI0
aI0
aI0
aI0
aI0
aI0
aI0
aI0
aI0
aI0
aI0
aI0
aI0
aI0
aI0
aI0
aI0
aI0
aI0
aI0
aI0
aI0
aI0
aI0
aI0
aI0
aI0
aI0
aI0
aI0
aI0
aI0
aI0
aI0
aI0
aI0
aI0
aI0
aI0
aI0
aI0
aI0
aI0
aI0
aI0
aI0
aI0
aI0
aI0
aI0
aI0
aI0
aI0
aI0
aI0
aI0
aI0
aI0
aI0
aI0
aI0
aI0
aI0
aI0
aI0
aI0
aI0
aI0
aI0
aI0
aI0
aI0
aI0
aI0
aI0
aI0
aI0
aI0
aI0
aI0
aI0
aI0
aI0
aI0
aI0
aI0
aI0
aI0
aI0
aI0
aI0
aI0
aI0
aI0
aI0
aI0
aI0
aI0
aI0
aI0
aI0
aI0
aI0
aI0
aI0
aI0
aI0
aI0
aI0
aI0
aI0
aI0
aI0
aI0
aI0
aI0
aI0
aI0
aI0
aI0
aI0
aI0
aI0
aI0
aI0
aI0
aI0
aI0
aI0
aI0
aI0
aI0
aI0
aI0
aI0
aI0
aI0
aI0
aI0
aI0
aI0
aI0
aI0
aI0
aI0
aI0
aI0
aI0
aI0
aI0
aI0
aI0
aI0
aI0
aI0
aI0
aI0
aI0
aI0
aI0
aI0
aI0
aI0
aI0
aI0
aI0
aI0
aI0
aI0
aI0
aI0
aI0
aI0
aI0
aI0
aI0
aI0
aI0
aI0
aI1
aI1
aI1
aI1
aI1
aI1
aI1
aI1
aI1
aI1
aI1
aI1
aI1
aI1
aI1
aI1
aI1
aI1
aI1
aI1
aI1
aI1
aI1
aI1
aI1
aI1
aI1
aI1
aI1
aI1
aI2
aI2
aI2
aI2
aI2
aI2
aI2
aI2
aI2
aI2
aI2
aI2
aI2
aI2
aI2
aI2
aI2
aI2
aI2
aI2
aI2
aI2
aI2
aI2
aI2
aI2
aI2
aI2
aI2
aI2
aI2
aI2
aI2
aI2
aI2
aI2
aI2
aI2
aI2
aI2
aI2
aI2
aI2
aI2
aI2
aI2
aI2
aI2
aI2
aI2
aI2
aI2
aI2
aI2
aI2
aI2
aI2
aI2
aI2
aI2
aI2
aI2
aI2
aI2
aI2
aI2
aI2
aI2
aI2
aI2
aI2
aI2
aI2
aI2
aI2
aI2
aI2
aI2
aI2
aI2
aI2
aI2
aI2
aI2
aI2
aI2
aI2
aI2
aI2
aI2
aI2
aI2
aI2
aI2
aI2
aI2
aI2
aI2
aI2
aI2
aI2
aI2
aI2
aI2
aI2
aI2
aI2
aI2
aI2
aI2
aI2
aI2
aI2
aI2
aI2
aI2
aI2
aI2
aI2
aI2
aI2
aI2
aI2
aI2
aI2
aI2
aI2
aI2
aI2
aI2
aI2
aI2
aI2
aI2
aI2
aI2
aI2
aI2
aI2
aI2
aI2
aI2
aI2
aI2
aI2
aI2
aI2
aI2
aI2
aI2
aI2
aI2
aI2
aI2
aI2
aI2
aI2
aI2
aI2
aI2
aI2
aI2
aI2
aI2
aI2
aI2
aI2
aI2
aI2
aI2
aI2
aI2
aI2
aI2
aI2
aI2
aI2
aI2
aI2
aI2
aI2
aI2
aI2
aI2
aI2
aI2
aI2
aI2
aI2
aI2
aI2
aI2
aI2
aI2
aI2
aI2
aI2
aI2
aI2
aI2
aI2
aI2
aI2
aI2
aI2
aI2
aI2
aI2
aI2
aI2
aI2
aI2
aI2
aI2
aI2
aI2
aI2
aI2
aI2
aI2
aI2
aI2
aI2
aI2
aI2
aI2
aI2
aI2
aI2
aI2
aI2
aI2
aI2
aI2
aI2
aI2
aI2
aI2
aI2
aI2
aI2
aI2
aI2
aI2
aI2
aI2
aI2
aI2
aI2
aI2
aI2
aI2
aI2
aI2
aI2
aI2
aI2
aI2
aI2
aI2
aI2
aI2
aI2
aI2
aI2
aI2
aI2
aI2
aI2
aI2
aI2
aI2
aI2
aI2
aI2
aI2
aI2
aI2
aI2
aI2
aI2
aI2
aI2
aI2
aI2
aI2
aI2
aI2
aI2
aI2
aI2
aI2
aI2
aI2
aI2
aI2
aI2
aI2
aI2
aI2
aI2
aI2
aI2
aI2
aI2
aI2
aI2
aI2
aI2
aI2
aI2
aI2
aI2
aI2
aI2
aI2
aI2
aI2
aI2
aI2
aI2
aI2
aI2
aI2
aI2
aI2
aI2
aI2
aI2
aI2
aI2
aI2
aI2
aI2
aI2
aI2
aI2
aI2
aI2
aI2
aI2
aI2
aI2
aI2
aI2
aI2
aI2
aI2
aI2
aI2
aI2
aI2
aI2
aI2
aI2
aI2
aI2
aI2
aI2
aI2
aI2
aI2
aI2
aI2
aI2
aI2
aI2
aI2
aI2
aI2
aI2
aI2
aI2
aI2
aI2
aI2
aI2
aI2
aI2
aI2
aI2
aI2
aI2
aI2
aI2
aI2
aI2
aI2
aI2
aI2
aI2
aI2
aI2
aI2
aI2
aI2
aI2
aI2
aI2
aI2
aI2
aI2
aI2
aI2
aI2
aI2
aI2
aI2
aI2
aI2
aI2
aI2
aI2
aI2
aI2
aI2
aI2
aI2
aI2
aI2
aI2
aI2
aI2
aI2
aI2
aI2
aI2
aI2
aI2
aI2
aI2
aI2
aI2
aI2
aI2
aI2
aI2
aI2
aI2
aI2
aI2
aI2
aI2
aI2
aI2
aI2
aI2
aI2
aI2
aI2
aI2
aI2
aI2
aI2
aI2
aI2
aI2
aI2
aI2
aI2
aI2
aI2
aI2
aI2
aI2
aI2
aI2
aI2
aI2
aI2
aI2
aI2
aI2
aI2
aI2
aI2
aI2
aI2
aI2
aI2
aI2
aI2
aI2
aI2
aI2
aI2
aI2
aI2
aI2
aI2
aI2
aI2
aI2
aI2
aI2
aI2
aI2
aI2
aI2
aI2
aI2
aI2
aI2
aI2
aI2
aI2
aI2
aI2
aI3
aI3
aI3
aI3
aI3
aI3
aI3
aI3
aI3
aI3
aI3
aI3
aI3
aI3
aI3
aI3
aI3
aI3
aI3
aI3
aI3
aI3
aI3
aI3
aI3
aI3
aI3
aI3
aI3
aI3
aI3
aI3
aI3
aI3
aI3
aI3
aI3
aI3
aI3
aI3
aI3
aI3
aI3
aI3
aI3
aI3
aI3
aI3
aI3
aI3
aI3
aI3
aI3
aI3
aI3
aI3
aI3
aI3
aI3
aI3
aI3
aI3
aI3
aI3
aI3
aI3
aI3
aI3
aI3
aI3
aI3
aI3
aI3
aI3
aI3
aI3
aI3
aI3
aI3
aI3
aI3
aI3
aI3
aI3
aI3
aI3
aI3
aI3
aI3
aI3
aI3
aI3
aI3
aI3
aI3
aI3
aI3
aI3
aI3
aI3
aI3
aI3
aI3
aI4
aI4
aI4
aI4
aI4
aI4
aI4
aI4
aI4
aI4
aI4
aI4
aI4
aI4
aI4
aI4
aI4
aI4
aI4
aI4
aI4
aI4
aI4
aI4
aI4
aI4
aI4
aI4
aI4
aI4
aI4
aI4
aI4
aI4
aI4
aI4
aI4
aI4
aI4
aI4
aI4
aI4
aI4
aI4
aI4
aI4
aI4
aI4
aI4
aI4
aI4
aI4
aI4
aI4
aI4
aI4
aI4
aI4
aI4
aI4
aI4
aI4
aI4
aI4
aI4
aI4
aI4
aI4
aI4
aI4
aI4
aI4
aI4
aI4
aI4
aI4
aI4
aI4
aI4
aI4
aI4
aI4
aI4
aI4
aI4
aI4
aI4
aI4
aI4
aI4
aI4
aI4
aI4
aI4
aI4
aI4
aI4
aI4
aI4
aI4
aI4
aI4
aI4
aI4
aI4
aI4
aI4
aI4
aI4
aI4
aI4
aI4
aI4
aI4
aI4
aI4
aI4
aI4
aI4
aI4
aI4
aI4
aI4
aI4
aI4
aI4
aI4
aI4
aI4
aI4
aI4
aI4
aI4
aI4
aI4
aI4
aI4
aI4
aI4
aI4
aI4
aI4
aI4
aI4
aI4
aI4
aI4
aI4
aI4
aI4
aI4
aI4
aI4
aI4
aI4
aI4
aI4
aI4
aI5
aI5
aI5
aI5
aI5
aI5
aI5
aI5
aI5
aI5
aI5
aI5
aI5
aI5
aI5
aI5
aI5
aI5
aI5
aI5
aI5
aI5
aI5
aI5
aI5
aI5
aI5
aI5
aI5
aI5
aI5
aI5
aI5
aI5
aI5
aI5
aI5
aI5
aI5
aI5
aI5
aI5
aI5
aI5
aI5
aI5
aI5
aI5
aI5
aI5
aI5
aI5
aI5
aI5
aI5
aI5
aI5
aI5
aI5
aI5
aI5
aI5
aI5
aI5
aI5
aI5
aI5
aI5
aI5
aI5
aI5
aI5
aI5
aI5
aI5
aI5
aI5
aI5
aI5
aI5
aI5
aI5
aI5
aI5
aI5
aI5
aI5
aI5
aI5
aI5
aI5
aI5
aI5
aI5
aI5
aI5
aI5
aI5
aI5
aI5
aI5
aI5
aI5
aI5
aI5
aI5
aI5
aI5
aI5
aI5
aI5
aI5
aI5
aI5
aI5
aI5
aI5
aI5
aI5
aI5
aI5
aI5
aI5
aI5
aI5
aI5
aI5
aI5
aI5
aI5
aI5
aI5
aI5
aI5
aI5
aI5
aI5
aI5
aI5
aI5
aI5
aI5
aI5
aI5
aI5
aI5
aI5
aI5
aI5
aI5
aI5
aI5
aI5
aI5
aI5
aI5
aI5
aI5
aI5
aI5
aI5
aI5
aI5
aI5
aI5
aI5
aI5
aI5
aI5
aI5
aI5
aI5
aI5
aI5
aI5
aI5
aI5
aI5
aI5
aI5
aI5
aI5
aI5
aI5
aI5
aI5
aI5
aI5
aI5
aI5
aI5
aI5
aI5
aI5
aI5
aI5
aI5
aI5
aI5
aI5
aI5
aI5
aI5
aI5
aI5
aI5
aI5
aI5
aI5
aI5
aI5
aI5
aI5
aI5
aI5
aI5
aI5
aI5
aI5
aI5
aI5
aI5
aI5
aI5
aI5
aI5
aI5
aI5
aI5
aI5
aI5
aI5
aI5
aI5
aI5
aI5
aI5
aI5
aI5
aI5
aI5
aI5
aI5
aI5
aI5
aI5
aI5
aI5
aI5
aI5
aI5
aI5
aI5
aI5
aI5
aI5
aI5
aI5
aI5
aI5
aI5
aI5
aI5
aI5
aI5
aI5
aI5
aI5
aI5
aI5
aI5
aI5
aI5
aI5
aI5
aI5
aI5
aI5
aI5
aI5
aI5
aI5
aI5
aI5
aI5
aI5
aI5
aI5
aI5
aI5
aI5
aI5
aI5
aI5
aI5
aI5
aI5
aI5
aI5
aI5
aI5
aI5
aI5
aI5
aI5
aI5
aI5
aI5
aI5
aI5
aI5
aI5
aI5
aI5
aI5
aI5
aI5
aI5
aI5
aI5
aI5
aI5
aI5
aI5
aI5
aI5
aI5
aI5
aI5
aI5
aI5
aI5
aI5
aI5
aI5
aI5
aI5
aI5
aI5
aI5
aI5
aI5
aI5
aI5
aI5
aI5
aI5
aI5
aI5
aI5
aI5
aI5
aI6
aI6
aI6
aI6
aI6
aI6
aI6
aI6
aI6
aI6
aI6
aI6
aI6
aI6
aI6
aI6
aI6
aI6
aI6
aI6
aI6
aI6
aI6
aI6
aI6
aI6
aI6
aI6
aI6
aI6
aI6
aI6
aI6
aI6
aI6
aI6
aI6
aI6
aI6
aI6
aI6
aI6
aI6
aI6
aI6
aI6
aI6
aI6
aI6
aI6
aI6
aI6
aI6
aI6
aI6
aI6
aI6
aI6
aI6
aI6
aI6
aI6
aI6
aI6
aI6
aI6
aI6
aI6
aI6
aI6
aI6
aI6
aI6
aI6
aI6
aI6
aI6
aI6
aI6
aI6
aI6
aI6
aI6
aI6
aI6
aI6
aI6
aI6
aI6
aI6
aI6
aI6
aI6
aI6
aI6
aI6
aI6
aI6
aI6
aI6
aI6
aI6
aI6
aI6
aI6
aI6
aI6
aI6
aI6
aI6
aI6
aI6
aI6
aI6
aI6
aI6
aI6
aI6
aI6
aI6
aI6
aI6
aI6
aI6
aI6
aI6
aI6
aI6
aI6
aI6
aI6
aI6
aI6
aI6
aI6
aI6
aI6
aI6
aI6
aI6
aI6
aI6
aI6
aI6
aI6
aI6
aI6
aI6
aI6
aI6
aI6
aI6
aI6
aI6
aI6
aI6
aI6
aI6
aI6
aI6
aI6
aI6
aI6
aI6
aI6
aI6
aI6
aI6
aI6
aI6
aI6
aI6
aI6
aI6
aI6
aI6
aI6
aI6
aI6
aI6
aI6
aI6
aI6
aI6
aI6
aI6
aI6
aI6
aI6
aI6
aI6
aI6
aI6
aI6
aI6
aI6
aI6
aI6
aI6
aI6
aI6
aI6
aI6
aI6
aI6
aI6
aI6
aI6
aI6
aI6
aI6
aI6
aI6
aI6
aI6
aI6
aI6
aI6
aI6
aI6
aI6
aI6
aI6
aI6
aI6
aI6
aI6
aI6
aI6
aI6
aI6
aI6
aI6
aI6
aI6
aI6
aI6
aI6
aI6
aI6
aI6
aI6
aI6
aI6
aI6
aI6
aI6
aI6
aI6
aI6
aI6
aI6
aI6
aI6
aI6
aI6
aI6
aI6
aI6
aI6
aI6
aI6
aI6
aI6
aI6
aI6
aI6
aI6
aI6
aI6
aI6
aI6
aI6
aI6
aI6
aI6
aI6
aI6
aI6
aI6
aI6
aI6
aI6
aI6
aI6
aI6
aI6
aI6
aI6
aI6
aI6
aI6
aI6
aI6
aI6
aI6
aI6
aI6
aI6
aI6
aI6
aI6
aI6
aI6
aI6
aI6
aI6
aI6
aI6
aI6
aI6
aI6
aI6
aI6
aI6
aI6
aI6
aI6
aI6
aI6
aI6
aI6
aI6
aI6
aI6
aI6
aI6
aI6
aI6
aI6
aI6
aI6
aI6
aI6
aI6
aI6
aI6
aI6
aI6
aI6
aI6
aI6
aI6
aI6
aI6
aI6
aI6
aI6
aI6
aI6
aI6
aI6
aI6
aI6
aI6
aI6
aI6
aI6
aI6
aI6
aI6
aI6
aI6
aI6
aI6
aI6
aI6
aI6
aI6
aI6
aI6
aI6
aI6
aI6
aI6
aI6
aI6
aI6
aI6
aI6
aI6
aI6
aI6
aI6
aI6
aI6
aI6
aI6
aI6
aI6
aI6
aI6
aI6
aI6
aI6
aI6
aI6
aI6
aI6
aI6
aI6
aI6
aI6
aI6
aI6
aI6
aI6
aI6
aI6
aI6
aI6
aI6
aI6
aI6
aI6
aI6
aI6
aI6
aI6
aI6
aI6
aI6
aI6
aI6
aI6
aI6
aI6
aI6
aI6
aI6
aI6
aI6
aI6
aI6
aI6
aI6
aI6
aI6
aI6
aI6
aI6
aI6
aI6
aI6
aI6
aI6
aI6
aI6
aI6
aI6
aI6
aI6
aI6
aI6
aI6
aI6
aI6
aI6
aI6
aI6
aI6
aI6
aI6
aI6
aI6
aI6
aI6
aI6
aI6
aI6
aI6
aI6
aI6
aI6
aI6
aI6
aI6
aI6
aI6
aI6
aI6
aI6
aI6
aI6
aI6
aI6
aI6
aI6
aI6
aI6
aI6
aI6
aI6
aI6
aI6
aI6
aI6
aI6
aI6
aI6
aI6
aI6
aI6
aI6
aI6
aI6
aI6
aI6
aI6
aI6
aI6
aI6
aI6
aI6
aI6
aI6
aI6
aI6
aI6
aI6
aI6
aI6
aI6
aI6
aI6
aI6
aI6
aI6
aI6
aI6
aI6
aI6
aI6
aI6
aI6
aI6
aI6
aI6
aI6
aI6
aI6
aI6
aI6
aI6
aI6
aI6
aI6
aI6
aI6
aI6
aI6
aI6
aI6
aI6
aI6
aI6
aI6
aI6
aI6
aI6
aI6
aI6
aI6
aI6
aI6
aI6
aI6
aI6
aI6
aI6
aI6
aI6
aI6
aI6
aI6
aI6
aI6
aI6
aI6
aI6
aI6
aI6
aI6
aI6
aI6
aI6
aI6
aI6
aI6
aa(lp5
I0
aI0
aI0
aI0
aI0
aI0
aI0
aI0
aI0
aI0
aI0
aI0
aI0
aI0
aI0
aI0
aI0
aI0
aI0
aI0
aI0
aI0
aI0
aI0
aI0
aI0
aI0
aI0
aI0
aI0
aI0
aI0
aI0
aI0
aI0
aI0
aI0
aI0
aI0
aI0
aI0
aI0
aI0
aI0
aI0
aI0
aI0
aI0
aI0
aI0
aI0
aI0
aI0
aI0
aI0
aI0
aI0
aI0
aI0
aI0
aI0
aI0
aI0
aI0
aI0
aI0
aI0
aI0
aI0
aI0
aI0
aI0
aI0
aI0
aI0
aI0
aI0
aI0
aI0
aI0
aI0
aI0
aI0
aI0
aI0
aI0
aI0
aI0
aI0
aI0
aI0
aI0
aI0
aI0
aI0
aI0
aI0
aI0
aI0
aI0
aI0
aI0
aI0
aI0
aI0
aI0
aI0
aI0
aI0
aI0
aI0
aI0
aI0
aI0
aI0
aI0
aI0
aI0
aI0
aI0
aI0
aI0
aI0
aI0
aI0
aI0
aI0
aI0
aI0
aI0
aI0
aI0
aI0
aI0
aI0
aI0
aI0
aI0
aI0
aI0
aI0
aI0
aI0
aI0
aI0
aI0
aI0
aI0
aI0
aI0
aI0
aI0
aI0
aI0
aI0
aI0
aI0
aI0
aI0
aI0
aI0
aI0
aI0
aI0
aI0
aI0
aI0
aI0
aI0
aI0
aI0
aI0
aI0
aI0
aI0
aI0
aI0
aI0
aI0
aI0
aI0
aI0
aI0
aI0
aI0
aI0
aI0
aI0
aI0
aI0
aI0
aI0
aI0
aI0
aI0
aI0
aI0
aI0
aI0
aI0
aI0
aI0
aI0
aI0
aI0
aI0
aI0
aI0
aI0
aI0
aI0
aI0
aI0
aI0
aI0
aI0
aI0
aI0
aI0
aI0
aI0
aI0
aI0
aI0
aI0
aI0
aI0
aI0
aI0
aI0
aI0
aI0
aI0
aI0
aI0
aI0
aI0
aI0
aI0
aI0
aI0
aI0
aI0
aI0
aI0
aI0
aI0
aI0
aI0
aI0
aI0
aI0
aI0
aI0
aI0
aI0
aI0
aI0
aI0
aI0
aI0
aI0
aI0
aI0
aI0
aI0
aI0
aI0
aI0
aI0
aI0
aI0
aI0
aI0
aI0
aI0
aI0
aI0
aI0
aI0
aI0
aI0
aI0
aI0
aI0
aI0
aI0
aI0
aI0
aI0
aI0
aI0
aI0
aI0
aI0
aI0
aI0
aI0
aI0
aI0
aI0
aI0
aI0
aI0
aI0
aI0
aI0
aI0
aI0
aI0
aI0
aI0
aI0
aI0
aI0
aI0
aI0
aI0
aI0
aI0
aI0
aI0
aI0
aI0
aI0
aI0
aI0
aI0
aI0
aI0
aI0
aI0
aI0
aI0
aI0
aI0
aI0
aI0
aI0
aI0
aI0
aI0
aI0
aI0
aI0
aI0
aI0
aI0
aI0
aI0
aI0
aI0
aI0
aI0
aI0
aI0
aI0
aI0
aI0
aI0
aI0
aI0
aI0
aI0
aI0
aI0
aI0
aI0
aI0
aI0
aI0
aI0
aI0
aI0
aI0
aI0
aI0
aI0
aI0
aI0
aI0
aI0
aI0
aI0
aI0
aI0
aI0
aI0
aI0
aI0
aI0
aI0
aI0
aI0
aI0
aI0
aI0
aI0
aI0
aI0
aI0
aI0
aI0
aI0
aI0
aI0
aI0
aI0
aI0
aI0
aI0
aI0
aI0
aI0
aI0
aI0
aI0
aI0
aI0
aI0
aI0
aI0
aI0
aI0
aI0
aI0
aI0
aI0
aI0
aI0
aI0
aI0
aI0
aI0
aI0
aI0
aI0
aI0
aI0
aI0
aI0
aI0
aI0
aI0
aI0
aI0
aI0
aI0
aI0
aI0
aI0
aI0
aI0
aI0
aI0
aI0
aI0
aI0
aI0
aI0
aI0
aI0
aI0
aI0
aI0
aI0
aI0
aI0
aI0
aI0
aI0
aI0
aI0
aI0
aI0
aI0
aI0
aI0
aI0
aI0
aI0
aI0
aI0
aI0
aI0
aI0
aI0
aI0
aI0
aI0
aI0
aI0
aI0
aI0
aI0
aI0
aI0
aI0
aI0
aI0
aI0
aI0
aI0
aI0
aI0
aI0
aI0
aI0
aI0
aI0
aI0
aI0
aI0
aI0
aI0
aI0
aI0
aI0
aI0
aI0
aI0
aI0
aI0
aI0
aI0
aI0
aI0
aI0
aI0
aI1
aI1
aI2
aI2
aI2
aI2
aI2
aI2
aI2
aI2
aI2
aI2
aI2
aI2
aI2
aI2
aI2
aI2
aI2
aI2
aI2
aI2
aI2
aI2
aI2
aI2
aI2
aI2
aI2
aI2
aI2
aI2
aI2
aI2
aI2
aI2
aI2
aI2
aI2
aI2
aI2
aI2
aI2
aI2
aI2
aI2
aI2
aI2
aI2
aI2
aI2
aI2
aI2
aI2
aI2
aI2
aI2
aI2
aI2
aI2
aI2
aI2
aI2
aI2
aI2
aI2
aI2
aI2
aI2
aI2
aI2
aI2
aI2
aI2
aI2
aI2
aI2
aI2
aI2
aI2
aI2
aI2
aI2
aI2
aI2
aI2
aI2
aI2
aI2
aI2
aI2
aI2
aI2
aI2
aI2
aI2
aI2
aI2
aI2
aI2
aI2
aI2
aI2
aI2
aI2
aI2
aI2
aI2
aI2
aI2
aI2
aI2
aI2
aI2
aI2
aI2
aI2
aI2
aI2
aI2
aI2
aI2
aI2
aI2
aI2
aI2
aI2
aI2
aI2
aI2
aI2
aI2
aI2
aI2
aI2
aI2
aI2
aI2
aI2
aI2
aI2
aI2
aI2
aI2
aI2
aI2
aI2
aI2
aI2
aI2
aI2
aI2
aI2
aI2
aI2
aI2
aI2
aI2
aI2
aI2
aI2
aI2
aI2
aI2
aI2
aI2
aI2
aI2
aI2
aI2
aI2
aI2
aI2
aI2
aI2
aI2
aI2
aI2
aI2
aI2
aI2
aI2
aI2
aI2
aI2
aI2
aI2
aI2
aI2
aI2
aI2
aI2
aI2
aI2
aI2
aI2
aI2
aI2
aI2
aI2
aI2
aI2
aI2
aI2
aI2
aI2
aI2
aI2
aI2
aI2
aI2
aI2
aI2
aI2
aI2
aI2
aI2
aI2
aI2
aI2
aI2
aI2
aI2
aI2
aI2
aI2
aI2
aI2
aI2
aI2
aI2
aI2
aI2
aI2
aI2
aI2
aI2
aI2
aI2
aI2
aI2
aI2
aI2
aI2
aI2
aI2
aI2
aI2
aI2
aI2
aI2
aI2
aI2
aI2
aI2
aI2
aI2
aI2
aI2
aI2
aI2
aI2
aI2
aI2
aI2
aI2
aI2
aI2
aI2
aI2
aI2
aI2
aI2
aI2
aI2
aI2
aI2
aI2
aI2
aI2
aI2
aI2
aI2
aI2
aI2
aI2
aI2
aI2
aI2
aI2
aI2
aI2
aI2
aI2
aI2
aI2
aI2
aI2
aI2
aI2
aI2
aI2
aI2
aI2
aI2
aI2
aI2
aI2
aI2
aI2
aI2
aI2
aI2
aI2
aI2
aI2
aI2
aI2
aI2
aI2
aI2
aI2
aI2
aI2
aI2
aI2
aI2
aI2
aI2
aI2
aI2
aI2
aI2
aI2
aI2
aI2
aI2
aI2
aI2
aI2
aI2
aI2
aI2
aI2
aI2
aI2
aI2
aI2
aI2
aI2
aI2
aI2
aI2
aI2
aI2
aI2
aI2
aI2
aI2
aI2
aI2
aI2
aI2
aI2
aI2
aI2
aI2
aI2
aI2
aI2
aI2
aI2
aI2
aI2
aI2
aI2
aI2
aI2
aI2
aI2
aI2
aI2
aI2
aI2
aI2
aI2
aI2
aI2
aI2
aI2
aI2
aI2
aI2
aI2
aI2
aI2
aI2
aI2
aI2
aI2
aI2
aI2
aI2
aI2
aI2
aI2
aI2
aI2
aI2
aI2
aI2
aI2
aI2
aI2
aI2
aI2
aI2
aI2
aI2
aI2
aI2
aI2
aI2
aI2
aI2
aI2
aI2
aI2
aI2
aI2
aI2
aI2
aI2
aI2
aI2
aI2
aI2
aI2
aI2
aI2
aI2
aI2
aI2
aI2
aI2
aI2
aI2
aI2
aI2
aI2
aI2
aI2
aI2
aI2
aI2
aI2
aI2
aI2
aI2
aI2
aI2
aI2
aI2
aI2
aI2
aI2
aI2
aI2
aI2
aI2
aI2
aI2
aI2
aI2
aI2
aI2
aI2
aI2
aI2
aI2
aI2
aI2
aI2
aI2
aI2
aI2
aI2
aI2
aI2
aI2
aI2
aI2
aI2
aI2
aI2
aI2
aI2
aI2
aI2
aI2
aI2
aI2
aI2
aI2
aI2
aI2
aI2
aI2
aI2
aI2
aI2
aI2
aI2
aI2
aI2
aI2
aI2
aI2
aI2
aI2
aI2
aI2
aI2
aI2
aI2
aI2
aI2
aI2
aI2
aI2
aI2
aI2
aI2
aI2
aI2
aI2
aI2
aI2
aI2
aI2
aI2
aI2
aI2
aI2
aI2
aI2
aI2
aI2
aI2
aI2
aI2
aI2
aI2
aI2
aI2
aI2
aI2
aI2
aI2
aI2
aI2
aI2
aI2
aI2
aI2
aI2
aI2
aI2
aI2
aI2
aI2
aI2
aI2
aI2
aI2
aI2
aI2
aI2
aI2
aI2
aI2
aI2
aI2
aI2
aI2
aI2
aI2
aI2
aI2
aI2
aI2
aI2
aI2
aI2
aI2
aI2
aI2
aI2
aI2
aI2
aI2
aI2
aI2
aI2
aI2
aI2
aI2
aI2
aI2
aI2
aI2
aI2
aI2
aI2
aI2
aI2
aI2
aI2
aI2
aI2
aI2
aI2
aI2
aI2
aI2
aI2
aI2
aI2
aI2
aI2
aI2
aI2
aI2
aI2
aI2
aI2
aI2
aI2
aI2
aI2
aI2
aI2
aI2
aI2
aI2
aI2
aI2
aI2
aI2
aI2
aI2
aI2
aI2
aI2
aI2
aI2
aI2
aI2
aI2
aI2
aI2
aI2
aI2
aI2
aI2
aI2
aI2
aI2
aI2
aI2
aI2
aI2
aI2
aI2
aI2
aI2
aI2
aI2
aI2
aI2
aI2
aI2
aI2
aI2
aI2
aI2
aI2
aI2
aI2
aI2
aI2
aI2
aI2
aI2
aI2
aI2
aI2
aI2
aI2
aI2
aI2
aI2
aI2
aI2
aI2
aI2
aI2
aI2
aI2
aI2
aI2
aI2
aI2
aI2
aI2
aI2
aI2
aI2
aI2
aI2
aI2
aI2
aI2
aI2
aI2
aI2
aI2
aI2
aI2
aI2
aI2
aI2
aI2
aI2
aI2
aI2
aI2
aI2
aI2
aI2
aI2
aI2
aI2
aI2
aI2
aI2
aI2
aI2
aI2
aI2
aI2
aI2
aI2
aI2
aI2
aI2
aI2
aI2
aI2
aI2
aI2
aI2
aI2
aI2
aI2
aI2
aI2
aI2
aI2
aI2
aI2
aI2
aI2
aI2
aI2
aI2
aI2
aI2
aI2
aI2
aI2
aI2
aI2
aI2
aI2
aI2
aI2
aI2
aI2
aI2
aI2
aI3
aI3
aI3
aI3
aI3
aI3
aI3
aI3
aI3
aI3
aI3
aI3
aI3
aI3
aI3
aI3
aI3
aI3
aI3
aI3
aI3
aI3
aI3
aI3
aI3
aI3
aI3
aI3
aI3
aI3
aI3
aI3
aI3
aI3
aI3
aI3
aI3
aI3
aI3
aI3
aI3
aI3
aI3
aI3
aI3
aI3
aI3
aI3
aI3
aI3
aI3
aI3
aI3
aI3
aI3
aI3
aI3
aI3
aI3
aI3
aI3
aI3
aI3
aI3
aI3
aI3
aI3
aI3
aI3
aI3
aI3
aI3
aI3
aI3
aI3
aI3
aI3
aI3
aI3
aI3
aI3
aI3
aI3
aI4
aI4
aI4
aI4
aI4
aI4
aI4
aI4
aI4
aI4
aI4
aI4
aI4
aI4
aI4
aI4
aI4
aI4
aI4
aI4
aI4
aI4
aI4
aI4
aI4
aI4
aI4
aI4
aI4
aI4
aI4
aI4
aI4
aI4
aI4
aI4
aI4
aI4
aI4
aI4
aI4
aI4
aI4
aI4
aI4
aI4
aI4
aI4
aI4
aI5
aI5
aI5
aI5
aI5
aI5
aI5
aI5
aI5
aI5
aI5
aI5
aI5
aI5
aI5
aI5
aI5
aI5
aI5
aI5
aI5
aI5
aI5
aI5
aI5
aI5
aI5
aI5
aI5
aI5
aI5
aI5
aI5
aI5
aI5
aI5
aI5
aI5
aI5
aI5
aI5
aI5
aI5
aI5
aI5
aI5
aI5
aI6
aI6
aI6
aI6
aI6
aI6
aI6
aI6
aI6
aI6
aI6
aI6
aI6
aI6
aI6
aI6
aI6
aI6
aI6
aI6
aI6
aI6
aI6
aI6
aI6
aI6
aI6
aI6
aI6
aI6
aI6
aI6
aI6
aI6
aI6
aI6
aI6
aI6
aI6
aI6
aI6
aI6
aI6
aI6
aI6
aI6
aI6
aI6
aI6
aI6
aI7
aI7
aI7
aI7
aI7
aI7
aI7
aI7
aI7
aI7
aI7
aI7
aI7
aI7
aI7
aI7
aI7
aI7
aI7
aI7
aI7
aI7
aI7
aI7
aI7
aI7
aI7
aI7
aI7
aI7
aI7
aI7
aI7
aI7
aI7
aI7
aI7
aI7
aI7
aI7
aI7
aI7
aI7
aI7
aI7
aI7
aI7
aI7
aI7
aI7
aI7
aI7
aI7
aI7
aI7
aI7
aI7
aI7
aI7
aI7
aI7
aI7
aI7
aI7
aI7
aI7
aI7
aI7
aI7
aI7
aI7
aI7
aI7
aI7
aI7
aI7
aI7
aI7
aI7
aI7
aI7
aI7
aI7
aI7
aI7
aI7
aI7
aI7
aI7
aI7
aI7
aI7
aI7
aI7
aI7
aI7
aI7
aI7
aI7
aI7
aI7
aI7
aI7
aI7
aI7
aI7
aI7
aI7
aI7
aI7
aI7
aI7
aI7
aI7
aI7
aI7
aI7
aI7
aI7
aI7
aI7
aI7
aI7
aI7
aI7
aI7
aI7
aI7
aI7
aI7
aI7
aI7
aI7
aI7
aI7
aI7
aI7
aI7
aI7
aI7
aI7
aI7
aI7
aI7
aI7
aI7
aI7
aI7
aI7
aI7
aI7
aI7
aI7
aI7
aI7
aI7
aI7
aI7
aI7
aI7
aI7
aI7
aI7
aI7
aI7
aI7
aI7
aI7
aI7
aI7
aI7
aI7
aI7
aI7
aI7
aI7
aI7
aI7
aI7
aI7
aI7
aI7
aI7
aI7
aI7
aI7
aI7
aI7
aI7
aI7
aI7
aI7
aI7
aI7
aI7
aI7
aI7
aI7
aI7
aI7
aI7
aI7
aI7
aI7
aI7
aI7
aI7
aI7
aI7
aI7
aI7
aI7
aI7
aI7
aI7
aI7
aI7
aI7
aI7
aI7
aI7
aI7
aI7
aI7
aI7
aI7
aI7
aI7
aI7
aI7
aI7
aI7
aI7
aI7
aI7
aI7
aI7
aI7
aI7
aI7
aI7
aI7
aI7
aI7
aI7
aI7
aI7
aI7
aI7
aI7
aI7
aI7
aI7
aI7
aI7
aI7
aI7
aI7
aI7
aI7
aI7
aI7
aI7
aI7
aI7
aI7
aI7
aI7
aI7
aI7
aI7
aI7
aI7
aI7
aI7
aI7
aI7
aI7
aI7
aI8
aI8
aI8
aI8
aI8
aI8
aI8
aI8
aI8
aI8
aI8
aI8
aI8
aI8
aI8
aI8
aI8
aI8
aI8
aI8
aI8
aI8
aI8
aI8
aI8
aI8
aI8
aI8
aI8
aI8
aI8
aI8
aI8
aI8
aI8
aI8
aI8
aI8
aI8
aI8
aI8
aI8
aI8
aI8
aI8
aI8
aI8
aI8
aI8
aI8
aI8
aI8
aI8
aI8
aI8
aI8
aI8
aI8
aI8
aI8
aI8
aI8
aI8
aI8
aI8
aI8
aI8
aI8
aI8
aI8
aI8
aI8
aI8
aI8
aI8
aI8
aI8
aI8
aI8
aI8
aI8
aI8
aI8
aI8
aI8
aI8
aI8
aI8
aI8
aI8
aI8
aI8
aI8
aI8
aI8
aI8
aI8
aI8
aI8
aI8
aI8
aI8
aI8
aI8
aI8
aI8
aI8
aI8
aI8
aI8
aI8
aI8
aI8
aI8
aI8
aI8
aI8
aI8
aI8
aI8
aI8
aI8
aI8
aI8
aI8
aI8
aI8
aI8
aI8
aI8
aI8
aI8
aI8
aI8
aI8
aI8
aI8
aI8
aI8
aI8
aI8
aI8
aI8
aI8
aI8
aI8
aI8
aI8
aI8
aI8
aI8
aI8
aI8
aI8
aI8
aI8
aI8
aI8
aI8
aI8
aI8
aI8
aI8
aI8
aI8
aI8
aI8
aI8
aI8
aI8
aI8
aI8
aa.