(lp0
(I5
I24
I2
tp1
a(I36
I47
I6
tp2
a(I2
I50
I0
tp3
a(I1
I27
I0
tp4
a(I1
I29
I3
tp5
a(I2
I20
I5
tp6
a(I1
I25
I0
tp7
a(I51
I46
I4
tp8
a(I1
I29
I6
tp9
a(I51
I46
I2
tp10
a(I2
I20
I4
tp11
a(I51
I46
I5
tp12
a(I10
I47
I0
tp13
a(I0
I21
I0
tp14
a(I43
I47
I3
tp15
a(I39
I38
I6
tp16
a(I32
I47
I5
tp17
a(I5
I24
I4
tp18
a(I5
I23
I2
tp19
a(I32
I47
I4
tp20
a(I5
I24
I5
tp21
a(I1
I14
I5
tp22
a(I1
I15
I5
tp23
a(I1
I16
I0
tp24
a(I1
I14
I4
tp25
a(I1
I15
I4
tp26
a(I2
I24
I1
tp27
a(I1
I26
I0
tp28
a(I5
I41
I6
tp29
a(I1
I44
I6
tp30
a(I2
I20
I2
tp31
a(I5
I23
I0
tp32
a(I6
I46
I0
tp33
a(I5
I50
I3
tp34
a(I0
I21
I2
tp35
a(I0
I19
I6
tp36
a(I5
I20
I6
tp37
a(I1
I18
I3
tp38
a(I1
I49
I5
tp39
a(I1
I49
I4
tp40
a(I5
I23
I4
tp41
a(I5
I23
I5
tp42
a(I31
I47
I5
tp43
a(I43
I47
I6
tp44
a(I1
I16
I4
tp45
a(I31
I47
I4
tp46
a(I6
I46
I4
tp47
a(I2
I23
I1
tp48
a(I2
I24
I3
tp49
a(I2
I28
I6
tp50
a(I1
I16
I5
tp51
a(I6
I46
I5
tp52
a(I39
I46
I3
tp53
a(I5
I24
I0
tp54
a(I35
I46
I5
tp55
a(I0
I21
I4
tp56
a(I1
I17
I3
tp57
a(I0
I19
I3
tp58
a(I35
I46
I4
tp59
a(I0
I21
I5
tp60
a(I5
I50
I6
tp61
a(I1
I30
I6
tp62
a(I0
I49
I0
tp63
a(I5
I20
I3
tp64
a(I1
I25
I4
tp65
a(I1
I18
I6
tp66
a(I1
I12
I6
tp67
a(I1
I25
I5
tp68
a(I2
I26
I5
tp69
a(I1
I13
I6
tp70
a(I51
I46
I0
tp71
a(I2
I26
I4
tp72
a(I1
I22
I6
tp73
a(I1
I27
I4
tp74
a(I31
I47
I2
tp75
a(I2
I23
I3
tp76
a(I1
I27
I5
tp77
a(I7
I47
I6
tp78
a(I1
I45
I6
tp79
a(I2
I24
I6
tp80
a(I0
I14
I0
tp81
a(I0
I15
I0
tp82
a(I35
I46
I2
tp83
a(I5
I20
I1
tp84
a(I1
I17
I6
tp85
a(I39
I46
I6
tp86
a(I1
I11
I6
tp87
a(I1
I20
I0
tp88
a(I2
I20
I0
tp89
a(I51
I38
I5
tp90
a(I2
I50
I4
tp91
a(I51
I38
I4
tp92
a(I2
I50
I5
tp93
a(I0
I22
I3
tp94
a(I1
I22
I3
tp95
a(I9
I47
I5
tp96
a(I9
I47
I4
tp97
a(I1
I14
I0
tp98
a(I1
I15
I0
tp99
a(I2
I17
I6
tp100
a(I5
I26
I6
tp101
a(I2
I23
I6
tp102
a(I5
I28
I5
tp103
a(I0
I11
I6
tp104
a(I48
I47
I5
tp105
a(I5
I28
I4
tp106
a(I48
I47
I4
tp107
a(I2
I45
I6
tp108
a(I2
I27
I5
tp109
a(I2
I27
I4
tp110
a(I32
I47
I0
tp111
a(I10
I47
I4
tp112
a(I51
I38
I2
tp113
a(I1
I26
I4
tp114
a(I1
I26
I5
tp115
a(I10
I47
I5
tp116
a(I2
I25
I5
tp117
a(I1
I49
I0
tp118
a(I2
I25
I4
tp119
a(I2
I18
I6
tp120
a(I0
I22
I6
tp121
a(I0
I13
I6
tp122
a(I0
I12
I6
tp123
a(I2
I17
I3
tp124
a(I5
I26
I3
tp125
a(I1
I21
I5
tp126
a(I1
I21
I4
tp127
a(I0
I30
I6
tp128
a(I5
I42
I6
tp129
a(I48
I47
I2
tp130
a(I2
I16
I5
tp131
a(I2
I16
I4
tp132
a(I31
I47
I0
tp133
a(I1
I28
I6
tp134
a(I2
I18
I3
tp135
a(I5
I27
I6
tp136
a(I35
I46
I0
tp137
a(I2
I26
I0
tp138
a(I5
I25
I6
tp139
a(I0
I49
I4
tp140
a(I1
I21
I2
tp141
a(I0
I49
I5
tp142
a(I1
I20
I2
tp143
a(I5
I17
I5
tp144
a(I5
I17
I4
tp145
a(I10
I46
I6
tp146
a(I0
I16
I0
tp147
a(I5
I45
I5
tp148
a(I35
I38
I5
tp149
a(I5
I45
I4
tp150
a(I5
I27
I3
tp151
a(I0
I44
I6
tp152
a(I35
I38
I4
tp153
a(I39
I23
I6
tp154
a(I5
I16
I6
tp155
a(I0
I14
I4
tp156
a(I0
I15
I4
tp157
a(I5
I25
I3
tp158
a(I51
I38
I0
tp159
a(I5
I18
I5
tp160
a(I0
I15
I5
tp161
a(I0
I14
I5
tp162
a(I5
I18
I4
tp163
a(I39
I50
I5
tp164
a(I39
I50
I4
tp165
a(I2
I29
I6
tp166
a(I5
I17
I2
tp167
a(I0
I25
I0
tp168
a(I5
I28
I0
tp169
a(I3
I46
I6
tp170
a(I1
I20
I4
tp171
a(I6
I50
I6
tp172
a(I2
I27
I0
tp173
a(I1
I20
I5
tp174
a(I10
I46
I3
tp175
a(I0
I27
I0
tp176
a(I9
I47
I0
tp177
a(I0
I29
I3
tp178
a(I5
I16
I3
tp179
a(I39
I23
I3
tp180
a(I2
I25
I0
tp181
a(I39
I24
I6
tp182
a(I5
I18
I2
tp183
a(I1
I50
I0
tp184
a(I48
I47
I0
tp185
a(I6
I23
I5
tp186
a(I39
I50
I2
tp187
a(I6
I23
I4
tp188
a(I2
I29
I3
tp189
a(I1
I21
I0
tp190
a(I5
I46
I0
tp191
a(I39
I41
I5
tp192
a(I6
I50
I3
tp193
a(I2
I16
I0
tp194
a(I39
I41
I4
tp195
a(I39
I23
I1
tp196
a(I0
I48
I5
tp197
a(I0
I48
I4
tp198
a(I39
I24
I3
tp199
a(I6
I41
I6
tp200
a(I2
I15
I5
tp201
a(I2
I14
I5
tp202
a(I2
I15
I4
tp203
a(I2
I14
I4
tp204
a(I0
I29
I6
tp205
a(I6
I23
I2
tp206
a(I6
I24
I5
tp207
a(I6
I24
I4
tp208
a(I35
I47
I3
tp209
a(I7
I46
I5
tp210
a(I51
I50
I6
tp211
a(I2
I44
I6
tp212
a(I0
I26
I0
tp213
a(I7
I46
I4
tp214
a(I1
I24
I1
tp215
a(I5
I17
I0
tp216
a(I5
I29
I5
tp217
a(I5
I29
I4
tp218
a(I39
I24
I1
tp219
a(I1
I19
I6
tp220
a(I5
I45
I0
tp221
a(I2
I49
I5
tp222
a(I2
I49
I4
tp223
a(I51
I23
I5
tp224
a(I51
I23
I4
tp225
a(I35
I38
I0
tp226
a(I6
I24
I2
tp227
a(I5
I18
I0
tp228
a(I51
I50
I3
tp229
a(I5
I14
I6
tp230
a(I5
I15
I6
tp231
a(I5
I33
I6
tp232
a(I5
I29
I2
tp233
a(I39
I50
I0
tp234
a(I0
I18
I3
tp235
a(I1
I19
I3
tp236
a(I43
I46
I5
tp237
a(I1
I23
I1
tp238
a(I43
I46
I4
tp239
a(I2
I30
I6
tp240
a(I51
I41
I6
tp241
a(I1
I24
I3
tp242
a(I51
I23
I2
tp243
a(I19
I47
I6
tp244
a(I0
I16
I4
tp245
a(I51
I24
I5
tp246
a(I35
I47
I6
tp247
a(I2
I12
I6
tp248
a(I51
I24
I4
tp249
a(I0
I16
I5
tp250
a(I39
I47
I0
tp251
a(I2
I13
I6
tp252
a(I51
I50
I1
tp253
a(I2
I22
I6
tp254
a(I5
I49
I6
tp255
a(I5
I14
I3
tp256
a(I5
I15
I3
tp257
a(I6
I23
I0
tp258
a(I0
I17
I3
tp259
a(I10
I38
I6
tp260
a(I0
I31
I5
tp261
a(I40
I47
I5
tp262
a(I51
I47
I1
tp263
a(I0
I31
I4
tp264
a(I0
I48
I0
tp265
a(I40
I47
I4
tp266
a(I43
I46
I2
tp267
a(I5
I44
I5
tp268
a(I51
I41
I3
tp269
a(I39
I41
I0
tp270
a(I5
I44
I4
tp271
a(I0
I25
I4
tp272
a(I39
I20
I5
tp273
a(I2
I11
I6
tp274
a(I51
I24
I2
tp275
a(I2
I14
I0
tp276
a(I2
I15
I0
tp277
a(I39
I20
I4
tp278
a(I0
I25
I5
tp279
a(I0
I18
I6
tp280
a(I1
I23
I3
tp281
a(I19
I47
I3
tp282
a(I2
I22
I3
tp283
a(I5
I49
I3
tp284
a(I0
I27
I4
tp285
a(I6
I20
I6
tp286
a(I1
I24
I6
tp287
a(I0
I27
I5
tp288
a(I6
I24
I0
tp289
a(I0
I20
I0
tp290
a(I0
I45
I6
tp291
a(I51
I41
I1
tp292
a(I5
I29
I0
tp293
a(I2
I49
I0
tp294
a(I35
I50
I6
tp295
a(I7
I46
I0
tp296
a(I39
I20
I2
tp297
a(I32
I46
I6
tp298
a(I0
I17
I6
tp299
a(I1
I50
I4
tp300
a(I1
I50
I5
tp301
a(I19
I47
I1
tp302
a(I36
I46
I5
tp303
a(I5
I30
I5
tp304
a(I51
I23
I0
tp305
a(I51
I47
I3
tp306
a(I5
I30
I4
tp307
a(I36
I46
I4
tp308
a(I6
I20
I3
tp309
a(I35
I23
I5
tp310
a(I35
I23
I4
tp311
a(I5
I12
I5
tp312
a(I5
I12
I4
tp313
a(I5
I13
I5
tp314
a(I5
I13
I4
tp315
a(I5
I22
I5
tp316
a(I1
I23
I6
tp317
a(I5
I22
I4
tp318
a(I35
I50
I3
tp319
a(I2
I21
I5
tp320
a(I5
I46
I4
tp321
a(I2
I21
I4
tp322
a(I32
I46
I3
tp323
a(I39
I28
I6
tp324
a(I5
I46
I5
tp325
a(I43
I46
I0
tp326
a(I6
I20
I1
tp327
a(I0
I31
I0
tp328
a(I31
I46
I6
tp329
a(I51
I24
I0
tp330
a(I35
I41
I6
tp331
a(I51
I20
I6
tp332
a(I35
I23
I2
tp333
a(I5
I11
I5
tp334
a(I0
I26
I4
tp335
a(I5
I11
I4
tp336
a(I35
I24
I5
tp337
a(I0
I26
I5
tp338
a(I5
I22
I2
tp339
a(I35
I24
I4
tp340
a(I35
I50
I1
tp341
a(I5
I44
I0
tp342
a(I2
I21
I2
tp343
a(I39
I26
I5
tp344
a(I39
I28
I3
tp345
a(I39
I26
I4
tp346
a(I39
I20
I0
tp347
a(I51
I47
I6
tp348
a(I40
I47
I0
tp349
a(I35
I41
I3
tp350
a(I51
I20
I3
tp351
a(I0
I43
I6
tp352
a(I31
I46
I3
tp353
a(I6
I28
I5
tp354
a(I6
I26
I6
tp355
a(I6
I28
I4
tp356
a(I35
I24
I2
tp357
a(I5
I21
I6
tp358
a(I43
I38
I5
tp359
a(I43
I38
I4
tp360
a(I39
I26
I2
tp361
a(I0
I28
I6
tp362
a(I51
I20
I1
tp363
a(I5
I30
I0
tp364
a(I37
I47
I6
tp365
a(I5
I8
I6
tp366
a(I8
I47
I5
tp367
a(I31
I46
I1
tp368
a(I8
I47
I4
tp369
a(I6
I26
I3
tp370
a(I5
I21
I3
tp371
a(I39
I42
I5
tp372
a(I5
I12
I0
tp373
a(I39
I42
I4
tp374
a(I0
I20
I2
tp375
a(I5
I13
I0
tp376
a(I36
I46
I0
tp377
a(I39
I17
I6
tp378
a(I35
I23
I0
tp379
a(I5
I22
I0
tp380
a(I9
I46
I6
tp381
a(I2
I21
I0
tp382
a(I39
I27
I5
tp383
a(I21
I47
I5
tp384
a(I6
I42
I6
tp385
a(I39
I45
I6
tp386
a(I39
I27
I4
tp387
a(I21
I47
I4
tp388
a(I5
I21
I1
tp389
a(I48
I46
I6
tp390
a(I39
I25
I5
tp391
a(I39
I25
I4
tp392
a(I5
I11
I0
tp393
a(I6
I27
I6
tp394
a(I39
I18
I6
tp395
a(I51
I28
I5
tp396
a(I2
I46
I6
tp397
a(I51
I26
I6
tp398
a(I51
I28
I4
tp399
a(I39
I17
I3
tp400
a(I39
I47
I4
tp401
a(I6
I47
I6
tp402
a(I6
I25
I6
tp403
a(I35
I24
I0
tp404
a(I39
I47
I5
tp405
a(I39
I27
I2
tp406
a(I9
I46
I3
tp407
a(I39
I45
I3
tp408
a(I6
I17
I5
tp409
a(I21
I47
I2
tp410
a(I11
I47
I6
tp411
a(I34
I47
I6
tp412
a(I35
I20
I6
tp413
a(I39
I26
I0
tp414
a(I6
I17
I4
tp415
a(I39
I16
I5
tp416
a(I39
I25
I2
tp417
a(I1
I48
I5
tp418
a(I39
I16
I4
tp419
a(I1
I48
I4
tp420
a(I0
I20
I4
tp421
a(I48
I46
I3
tp422
a(I0
I50
I0
tp423
a(I32
I38
I6
tp424
a(I6
I27
I3
tp425
a(I6
I45
I5
tp426
a(I39
I18
I3
tp427
a(I51
I28
I2
tp428
a(I39
I17
I1
tp429
a(I0
I20
I5
tp430
a(I6
I45
I4
tp431
a(I51
I26
I3
tp432
a(I6
I28
I0
tp433
a(I6
I16
I6
tp434
a(I6
I25
I3
tp435
a(I10
I23
I6
tp436
a(I22
I47
I6
tp437
a(I6
I18
I5
tp438
a(I13
I47
I6
tp439
a(I6
I18
I4
tp440
a(I6
I17
I2
tp441
a(I35
I20
I3
tp442
a(I12
I47
I6
tp443
a(I39
I16
I2
tp444
a(I10
I50
I5
tp445
a(I51
I42
I6
tp446
a(I43
I38
I0
tp447
a(I10
I50
I4
tp448
a(I2
I19
I6
tp449
a(I11
I47
I3
tp450
a(I48
I46
I1
tp451
a(I39
I18
I1
tp452
a(I51
I26
I1
tp453
a(I30
I47
I6
tp454
a(I39
I42
I0
tp455
a(I51
I27
I6
tp456
a(I6
I16
I3
tp457
a(I10
I23
I3
tp458
a(I3
I23
I6
tp459
a(I31
I38
I6
tp460
a(I6
I18
I2
tp461
a(I35
I20
I1
tp462
a(I51
I25
I6
tp463
a(I22
I47
I3
tp464
a(I8
I47
I0
tp465
a(I51
I42
I3
tp466
a(I13
I47
I3
tp467
a(I39
I27
I0
tp468
a(I10
I24
I6
tp469
a(I2
I19
I3
tp470
a(I10
I50
I2
tp471
a(I3
I50
I5
tp472
a(I3
I50
I4
tp473
a(I12
I47
I3
tp474
a(I51
I17
I5
tp475
a(I51
I17
I4
tp476
a(I39
I25
I0
tp477
a(I39
I29
I6
tp478
a(I51
I27
I3
tp479
a(I51
I45
I5
tp480
a(I30
I47
I3
tp481
a(I10
I23
I1
tp482
a(I0
I24
I1
tp483
a(I51
I45
I4
tp484
a(I51
I28
I0
tp485
a(I21
I47
I0
tp486
a(I10
I41
I5
tp487
a(I3
I23
I3
tp488
a(I10
I41
I4
tp489
a(I31
I38
I3
tp490
a(I51
I42
I1
tp491
a(I51
I25
I3
tp492
a(I51
I16
I6
tp493
a(I1
I48
I0
tp494
a(I22
I47
I1
tp495
a(I10
I24
I3
tp496
a(I51
I18
I5
tp497
a(I44
I47
I6
tp498
a(I3
I24
I6
tp499
a(I51
I17
I2
tp500
a(I51
I18
I4
tp501
a(I6
I17
I0
tp502
a(I39
I16
I0
tp503
a(I1
I31
I5
tp504
a(I51
I27
I1
tp505
a(I1
I31
I4
tp506
a(I7
I50
I6
tp507
a(I39
I29
I3
tp508
a(I35
I28
I5
tp509
a(I51
I45
I2
tp510
a(I6
I45
I0
tp511
a(I5
I40
I6
tp512
a(I35
I28
I4
tp513
a(I35
I26
I6
tp514
a(I49
I47
I5
tp515
a(I3
I23
I1
tp516
a(I49
I47
I4
tp517
a(I51
I25
I1
tp518
a(I51
I16
I3
tp519
a(I5
I19
I5
tp520
a(I10
I24
I1
tp521
a(I5
I19
I4
tp522
a(I6
I18
I0
tp523
a(I51
I18
I2
tp524
a(I6
I29
I5
tp525
a(I7
I23
I5
tp526
a(I6
I29
I4
tp527
a(I3
I24
I3
tp528
a(I7
I23
I4
tp529
a(I44
I47
I3
tp530
a(I0
I23
I1
tp531
a(I39
I29
I1
tp532
a(I10
I50
I0
tp533
a(I35
I28
I2
tp534
a(I7
I50
I3
tp535
a(I35
I26
I3
tp536
a(I39
I15
I5
tp537
a(I39
I33
I5
tp538
a(I39
I14
I5
tp539
a(I39
I14
I4
tp540
a(I39
I33
I4
tp541
a(I39
I15
I4
tp542
a(I9
I38
I6
tp543
a(I0
I24
I3
tp544
a(I15
I47
I5
tp545
a(I14
I47
I5
tp546
a(I33
I47
I5
tp547
a(I51
I16
I1
tp548
a(I49
I47
I2
tp549
a(I5
I19
I2
tp550
a(I14
I47
I4
tp551
a(I33
I47
I4
tp552
a(I15
I47
I4
tp553
a(I6
I29
I2
tp554
a(I3
I24
I1
tp555
a(I7
I23
I2
tp556
a(I43
I50
I6
tp557
a(I48
I38
I6
tp558
a(I7
I41
I6
tp559
a(I39
I44
I6
tp560
a(I6
I33
I6
tp561
a(I6
I15
I6
tp562
a(I6
I14
I6
tp563
a(I35
I42
I6
tp564
a(I51
I17
I0
tp565
a(I35
I26
I1
tp566
a(I7
I24
I5
tp567
a(I3
I50
I0
tp568
a(I39
I14
I2
tp569
a(I39
I15
I2
tp570
a(I7
I24
I4
tp571
a(I39
I49
I5
tp572
a(I43
I23
I5
tp573
a(I39
I49
I4
tp574
a(I51
I45
I0
tp575
a(I43
I23
I4
tp576
a(I29
I47
I6
tp577
a(I35
I27
I6
tp578
a(I14
I47
I2
tp579
a(I15
I47
I2
tp580
a(I10
I41
I0
tp581
a(I43
I50
I3
tp582
a(I1
I31
I0
tp583
a(I39
I44
I3
tp584
a(I6
I15
I3
tp585
a(I6
I14
I3
tp586
a(I48
I38
I3
tp587
a(I35
I42
I3
tp588
a(I35
I25
I6
tp589
a(I51
I18
I0
tp590
a(I6
I49
I6
tp591
a(I51
I29
I5
tp592
a(I7
I24
I2
tp593
a(I51
I29
I4
tp594
a(I0
I23
I3
tp595
a(I35
I17
I5
tp596
a(I35
I17
I4
tp597
a(I39
I49
I2
tp598
a(I43
I23
I2
tp599
a(I35
I28
I0
tp600
a(I6
I44
I5
tp601
a(I35
I27
I3
tp602
a(I6
I44
I4
tp603
a(I5
I19
I0
tp604
a(I35
I45
I5
tp605
a(I43
I41
I6
tp606
a(I35
I45
I4
tp607
a(I29
I47
I3
tp608
a(I43
I50
I1
tp609
a(I39
I30
I6
tp610
a(I10
I20
I5
tp611
a(I0
I24
I6
tp612
a(I10
I20
I4
tp613
a(I43
I24
I5
tp614
a(I6
I29
I0
tp615
a(I35
I25
I3
tp616
a(I43
I24
I4
tp617
a(I6
I49
I3
tp618
a(I35
I16
I6
tp619
a(I51
I29
I2
tp620
a(I7
I23
I0
tp621
a(I35
I17
I2
tp622
a(I35
I18
I5
tp623
a(I39
I12
I6
tp624
a(I49
I47
I0
tp625
a(I35
I18
I4
tp626
a(I39
I13
I6
tp627
a(I35
I27
I1
tp628
a(I39
I15
I0
tp629
a(I39
I14
I0
tp630
a(I39
I33
I0
tp631
a(I51
I15
I6
tp632
a(I51
I33
I6
tp633
a(I51
I14
I6
tp634
a(I39
I22
I6
tp635
a(I0
I50
I4
tp636
a(I35
I45
I2
tp637
a(I43
I41
I3
tp638
a(I39
I30
I3
tp639
a(I0
I50
I5
tp640
a(I29
I47
I1
tp641
a(I10
I20
I2
tp642
a(I35
I25
I1
tp643
a(I1
I43
I6
tp644
a(I43
I24
I2
tp645
a(I0
I35
I6
tp646
a(I3
I20
I5
tp647
a(I35
I16
I3
tp648
a(I3
I20
I4
tp649
a(I36
I50
I6
tp650
a(I39
I12
I3
tp651
a(I35
I18
I2
tp652
a(I33
I47
I0
tp653
a(I15
I47
I0
tp654
a(I14
I47
I0
tp655
a(I39
I13
I3
tp656
a(I51
I14
I3
tp657
a(I51
I15
I3
tp658
a(I51
I33
I3
tp659
a(I39
I11
I6
tp660
a(I39
I34
I6
tp661
a(I6
I30
I5
tp662
a(I40
I46
I6
tp663
a(I39
I22
I3
tp664
a(I6
I30
I4
tp665
a(I39
I49
I0
tp666
a(I7
I24
I0
tp667
a(I32
I23
I6
tp668
a(I51
I49
I6
tp669
a(I36
I23
I5
tp670
a(I36
I23
I4
tp671
a(I43
I23
I0
tp672
a(I6
I12
I5
tp673
a(I0
I23
I6
tp674
a(I35
I16
I1
tp675
a(I6
I12
I4
tp676
a(I19
I46
I5
tp677
a(I32
I50
I5
tp678
a(I3
I20
I2
tp679
a(I32
I50
I4
tp680
a(I19
I46
I4
tp681
a(I6
I13
I5
tp682
a(I51
I44
I5
tp683
a(I6
I13
I4
tp684
a(I51
I44
I4
tp685
a(I18
I47
I6
tp686
a(I6
I22
I5
tp687
a(I36
I50
I3
tp688
a(I6
I22
I4
tp689
a(I51
I14
I1
tp690
a(I51
I15
I1
tp691
a(I51
I33
I1
tp692
a(I39
I22
I1
tp693
a(I51
I29
I0
tp694
a(I39
I11
I3
tp695
a(I16
I47
I5
tp696
a(I35
I17
I0
tp697
a(I16
I47
I4
tp698
a(I40
I46
I3
tp699
a(I51
I49
I3
tp700
a(I7
I20
I6
tp701
a(I32
I23
I3
tp702
a(I6
I44
I0
tp703
a(I36
I23
I2
tp704
a(I45
I47
I6
tp705
a(I10
I28
I6
tp706
a(I35
I45
I0
tp707
a(I32
I50
I2
tp708
a(I51
I44
I2
tp709
a(I19
I46
I2
tp710
a(I6
I11
I5
tp711
a(I6
I22
I2
tp712
a(I36
I41
I6
tp713
a(I6
I11
I4
tp714
a(I10
I20
I0
tp715
a(I32
I24
I6
tp716
a(I17
I47
I6
tp717
a(I43
I24
I0
tp718
a(I36
I24
I5
tp719
a(I18
I47
I3
tp720
a(I36
I24
I4
tp721
a(I31
I23
I6
tp722
a(I51
I49
I1
tp723
a(I35
I18
I0
tp724
a(I25
I47
I5
tp725
a(I16
I47
I2
tp726
a(I32
I23
I1
tp727
a(I25
I47
I4
tp728
a(I7
I20
I3
tp729
a(I31
I50
I5
tp730
a(I10
I28
I3
tp731
a(I39
I37
I6
tp732
a(I31
I50
I4
tp733
a(I35
I29
I5
tp734
a(I10
I26
I5
tp735
a(I39
I21
I5
tp736
a(I32
I41
I5
tp737
a(I35
I29
I4
tp738
a(I45
I47
I3
tp739
a(I27
I47
I5
tp740
a(I10
I26
I4
tp741
a(I39
I21
I4
tp742
a(I32
I41
I4
tp743
a(I51
I30
I5
tp744
a(I27
I47
I4
tp745
a(I3
I28
I6
tp746
a(I51
I30
I4
tp747
a(I32
I24
I3
tp748
a(I2
I48
I5
tp749
a(I36
I24
I2
tp750
a(I2
I48
I4
tp751
a(I3
I20
I0
tp752
a(I17
I47
I3
tp753
a(I18
I47
I1
tp754
a(I31
I23
I3
tp755
a(I51
I12
I5
tp756
a(I43
I20
I6
tp757
a(I7
I20
I1
tp758
a(I6
I30
I0
tp759
a(I51
I12
I4
tp760
a(I42
I47
I5
tp761
a(I42
I47
I4
tp762
a(I25
I47
I2
tp763
a(I51
I13
I5
tp764
a(I6
I21
I6
tp765
a(I31
I50
I2
tp766
a(I51
I13
I4
tp767
a(I35
I29
I2
tp768
a(I51
I22
I5
tp769
a(I39
I21
I2
tp770
a(I39
I8
I5
tp771
a(I10
I26
I2
tp772
a(I51
I22
I4
tp773
a(I39
I8
I4
tp774
a(I51
I30
I2
tp775
a(I6
I12
I0
tp776
a(I31
I24
I6
tp777
a(I27
I47
I2
tp778
a(I32
I24
I1
tp779
a(I36
I23
I0
tp780
a(I6
I13
I0
tp781
a(I3
I26
I5
tp782
a(I51
I44
I0
tp783
a(I3
I26
I4
tp784
a(I6
I22
I0
tp785
a(I35
I14
I6
tp786
a(I35
I15
I6
tp787
a(I35
I33
I6
tp788
a(I31
I23
I1
tp789
a(I32
I50
I0
tp790
a(I51
I12
I2
tp791
a(I17
I47
I1
tp792
a(I43
I20
I3
tp793
a(I19
I46
I0
tp794
a(I51
I13
I2
tp795
a(I6
I21
I3
tp796
a(I6
I8
I6
tp797
a(I51
I22
I2
tp798
a(I51
I34
I5
tp799
a(I51
I11
I5
tp800
a(I31
I41
I5
tp801
a(I51
I34
I4
tp802
a(I51
I11
I4
tp803
a(I10
I42
I5
tp804
a(I0
I51
I6
tp805
a(I31
I41
I4
tp806
a(I10
I42
I4
tp807
a(I31
I24
I3
tp808
a(I6
I11
I0
tp809
a(I4
I46
I6
tp810
a(I35
I14
I3
tp811
a(I35
I33
I3
tp812
a(I35
I15
I3
tp813
a(I10
I17
I6
tp814
a(I16
I47
I0
tp815
a(I43
I20
I1
tp816
a(I6
I21
I1
tp817
a(I10
I27
I5
tp818
a(I26
I47
I5
tp819
a(I10
I27
I4
tp820
a(I35
I49
I6
tp821
a(I0
I51
I3
tp822
a(I51
I11
I2
tp823
a(I51
I34
I2
tp824
a(I26
I47
I4
tp825
a(I36
I24
I0
tp826
a(I28
I47
I6
tp827
a(I7
I28
I5
tp828
a(I10
I45
I6
tp829
a(I5
I48
I6
tp830
a(I7
I28
I4
tp831
a(I31
I41
I2
tp832
a(I9
I23
I6
tp833
a(I10
I25
I5
tp834
a(I7
I26
I6
tp835
a(I39
I21
I0
tp836
a(I31
I24
I1
tp837
a(I10
I25
I4
tp838
a(I35
I29
I0
tp839
a(I35
I44
I5
tp840
a(I2
I48
I0
tp841
a(I35
I15
I1
tp842
a(I35
I14
I1
tp843
a(I35
I44
I4
tp844
a(I10
I26
I0
tp845
a(I51
I30
I0
tp846
a(I31
I50
I0
tp847
a(I9
I50
I5
tp848
a(I10
I17
I3
tp849
a(I1
I46
I6
tp850
a(I9
I50
I4
tp851
a(I32
I41
I0
tp852
a(I5
I9
I6
tp853
a(I10
I18
I6
tp854
a(I25
I47
I0
tp855
a(I10
I27
I2
tp856
a(I48
I23
I6
tp857
a(I51
I21
I6
tp858
a(I35
I49
I3
tp859
a(I5
I48
I3
tp860
a(I51
I12
I0
tp861
a(I3
I17
I6
tp862
a(I10
I45
I3
tp863
a(I26
I47
I2
tp864
a(I48
I50
I5
tp865
a(I51
I13
I0
tp866
a(I27
I47
I0
tp867
a(I3
I27
I5
tp868
a(I48
I50
I4
tp869
a(I39
I8
I0
tp870
a(I28
I47
I3
tp871
a(I9
I23
I3
tp872
a(I10
I25
I2
tp873
a(I51
I22
I0
tp874
a(I7
I26
I3
tp875
a(I3
I27
I4
tp876
a(I35
I44
I2
tp877
a(I3
I45
I6
tp878
a(I10
I17
I1
tp879
a(I8
I46
I6
tp880
a(I10
I16
I5
tp881
a(I9
I50
I2
tp882
a(I36
I20
I6
tp883
a(I10
I16
I4
tp884
a(I51
I37
I5
tp885
a(I3
I25
I5
tp886
a(I2
I31
I5
tp887
a(I10
I18
I3
tp888
a(I51
I37
I4
tp889
a(I2
I31
I4
tp890
a(I3
I25
I4
tp891
a(I35
I49
I1
tp892
a(I3
I26
I0
tp893
a(I51
I21
I3
tp894
a(I48
I23
I3
tp895
a(I42
I47
I0
tp896
a(I51
I8
I6
tp897
a(I3
I17
I3
tp898
a(I9
I24
I6
tp899
a(I40
I38
I6
tp900
a(I43
I28
I5
tp901
a(I3
I18
I6
tp902
a(I48
I50
I2
tp903
a(I9
I23
I1
tp904
a(I43
I28
I4
tp905
a(I51
I34
I0
tp906
a(I51
I11
I0
tp907
a(I43
I26
I6
tp908
a(I7
I42
I6
tp909
a(I10
I42
I0
tp910
a(I32
I20
I5
tp911
a(I21
I46
I6
tp912
a(I10
I16
I2
tp913
a(I31
I41
I0
tp914
a(I32
I20
I4
tp915
a(I35
I30
I5
tp916
a(I51
I37
I2
tp917
a(I48
I24
I6
tp918
a(I8
I46
I3
tp919
a(I19
I38
I5
tp920
a(I10
I18
I1
tp921
a(I36
I20
I3
tp922
a(I35
I30
I4
tp923
a(I37
I46
I5
tp924
a(I51
I21
I1
tp925
a(I19
I38
I4
tp926
a(I9
I41
I5
tp927
a(I37
I46
I4
tp928
a(I48
I23
I1
tp929
a(I9
I41
I4
tp930
a(I51
I8
I3
tp931
a(I3
I16
I5
tp932
a(I9
I24
I3
tp933
a(I3
I16
I4
tp934
a(I35
I12
I5
tp935
a(I43
I28
I2
tp936
a(I10
I27
I0
tp937
a(I3
I18
I3
tp938
a(I7
I27
I6
tp939
a(I35
I12
I4
tp940
a(I35
I13
I5
tp941
a(I43
I26
I3
tp942
a(I48
I41
I5
tp943
a(I7
I28
I0
tp944
a(I35
I13
I4
tp945
a(I35
I22
I5
tp946
a(I48
I41
I4
tp947
a(I32
I20
I2
tp948
a(I35
I22
I4
tp949
a(I35
I30
I2
tp950
a(I36
I20
I1
tp951
a(I10
I25
I0
tp952
a(I35
I44
I0
tp953
a(I21
I46
I3
tp954
a(I7
I25
I6
tp955
a(I48
I24
I3
tp956
a(I51
I8
I1
tp957
a(I19
I38
I2
tp958
a(I7
I17
I5
tp959
a(I26
I47
I0
tp960
a(I7
I17
I4
tp961
a(I9
I24
I1
tp962
a(I51
I4
I6
tp963
a(I9
I50
I0
tp964
a(I35
I12
I2
tp965
a(I7
I27
I3
tp966
a(I43
I26
I1
tp967
a(I35
I13
I2
tp968
a(I7
I45
I5
tp969
a(I35
I22
I2
tp970
a(I48
I41
I2
tp971
a(I7
I45
I4
tp972
a(I5
I31
I6
tp973
a(I35
I34
I5
tp974
a(I35
I11
I5
tp975
a(I3
I27
I0
tp976
a(I2
I31
I0
tp977
a(I48
I24
I1
tp978
a(I35
I11
I4
tp979
a(I35
I34
I4
tp980
a(I43
I42
I6
tp981
a(I31
I20
I5
tp982
a(I20
I47
I5
tp983
a(I48
I50
I0
tp984
a(I21
I46
I1
tp985
a(I7
I25
I3
tp986
a(I31
I20
I4
tp987
a(I20
I47
I4
tp988
a(I51
I37
I0
tp989
a(I7
I17
I2
tp990
a(I10
I16
I0
tp991
a(I51
I4
I3
tp992
a(I39
I19
I6
tp993
a(I3
I25
I0
tp994
a(I7
I16
I6
tp995
a(I10
I29
I6
tp996
a(I7
I18
I5
tp997
a(I7
I18
I4
tp998
a(I5
I31
I3
tp999
a(I39
I40
I5
tp1000
a(I43
I27
I6
tp1001
a(I39
I40
I4
tp1002
a(I35
I11
I2
tp1003
a(I43
I28
I0
tp1004
a(I34
I46
I5
tp1005
a(I11
I46
I5
tp1006
a(I11
I46
I4
tp1007
a(I34
I46
I4
tp1008
a(I43
I42
I3
tp1009
a(I31
I20
I2
tp1010
a(I35
I30
I0
tp1011
a(I20
I47
I2
tp1012
a(I39
I19
I3
tp1013
a(I43
I25
I6
tp1014
a(I32
I20
I0
tp1015
a(I7
I16
I3
tp1016
a(I10
I29
I3
tp1017
a(I7
I18
I2
tp1018
a(I43
I17
I5
tp1019
a(I43
I17
I4
tp1020
a(I32
I28
I6
tp1021
a(I9
I41
I0
tp1022
a(I36
I28
I5
tp1023
a(I19
I38
I0
tp1024
a(I3
I16
I0
tp1025
a(I35
I12
I0
tp1026
a(I36
I28
I4
tp1027
a(I43
I27
I3
tp1028
a(I37
I46
I0
tp1029
a(I6
I40
I6
tp1030
a(I35
I13
I0
tp1031
a(I36
I26
I6
tp1032
a(I22
I46
I5
tp1033
a(I43
I45
I5
tp1034
a(I11
I46
I2
tp1035
a(I3
I29
I6
tp1036
a(I35
I21
I6
tp1037
a(I35
I22
I0
tp1038
a(I39
I19
I1
tp1039
a(I43
I45
I4
tp1040
a(I22
I46
I4
tp1041
a(I5
I32
I6
tp1042
a(I13
I46
I5
tp1043
a(I13
I46
I4
tp1044
a(I6
I19
I5
tp1045
a(I48
I41
I0
tp1046
a(I43
I25
I3
tp1047
a(I6
I19
I4
tp1048
a(I10
I29
I1
tp1049
a(I5
I47
I6
tp1050
a(I12
I46
I5
tp1051
a(I12
I46
I4
tp1052
a(I43
I17
I2
tp1053
a(I7
I17
I0
tp1054
a(I32
I28
I3
tp1055
a(I43
I27
I1
tp1056
a(I43
I16
I6
tp1057
a(I43
I18
I5
tp1058
a(I35
I37
I5
tp1059
a(I43
I18
I4
tp1060
a(I32
I26
I5
tp1061
a(I35
I37
I4
tp1062
a(I30
I46
I5
tp1063
a(I32
I26
I4
tp1064
a(I36
I26
I3
tp1065
a(I35
I21
I3
tp1066
a(I43
I45
I2
tp1067
a(I3
I29
I3
tp1068
a(I30
I46
I4
tp1069
a(I7
I45
I0
tp1070
a(I35
I11
I0
tp1071
a(I35
I34
I0
tp1072
a(I22
I46
I2
tp1073
a(I35
I8
I6
tp1074
a(I6
I19
I2
tp1075
a(I43
I25
I1
tp1076
a(I10
I14
I5
tp1077
a(I10
I15
I5
tp1078
a(I10
I33
I5
tp1079
a(I13
I46
I2
tp1080
a(I10
I33
I4
tp1081
a(I10
I14
I4
tp1082
a(I10
I15
I4
tp1083
a(I31
I20
I0
tp1084
a(I2
I43
I6
tp1085
a(I12
I46
I2
tp1086
a(I43
I16
I3
tp1087
a(I43
I18
I2
tp1088
a(I7
I18
I0
tp1089
a(I39
I40
I0
tp1090
a(I35
I21
I1
tp1091
a(I1
I35
I6
tp1092
a(I32
I26
I2
tp1093
a(I31
I28
I6
tp1094
a(I20
I47
I0
tp1095
a(I30
I46
I2
tp1096
a(I9
I20
I5
tp1097
a(I35
I8
I3
tp1098
a(I10
I15
I2
tp1099
a(I10
I14
I2
tp1100
a(I9
I20
I4
tp1101
a(I10
I44
I6
tp1102
a(I36
I42
I6
tp1103
a(I43
I16
I1
tp1104
a(I34
I46
I0
tp1105
a(I11
I46
I0
tp1106
a(I10
I49
I5
tp1107
a(I48
I20
I5
tp1108
a(I43
I17
I0
tp1109
a(I3
I15
I5
tp1110
a(I3
I14
I5
tp1111
a(I10
I49
I4
tp1112
a(I48
I20
I4
tp1113
a(I3
I15
I4
tp1114
a(I3
I14
I4
tp1115
a(I31
I28
I3
tp1116
a(I49
I46
I6
tp1117
a(I36
I28
I0
tp1118
a(I9
I20
I2
tp1119
a(I7
I29
I5
tp1120
a(I31
I26
I5
tp1121
a(I36
I27
I6
tp1122
a(I51
I40
I6
tp1123
a(I7
I29
I4
tp1124
a(I31
I26
I4
tp1125
a(I10
I44
I3
tp1126
a(I32
I42
I5
tp1127
a(I43
I45
I0
tp1128
a(I6
I19
I0
tp1129
a(I32
I42
I4
tp1130
a(I8
I38
I6
tp1131
a(I35
I4
I6
tp1132
a(I44
I46
I5
tp1133
a(I44
I46
I4
tp1134
a(I51
I19
I5
tp1135
a(I51
I19
I4
tp1136
a(I10
I49
I2
tp1137
a(I22
I46
I0
tp1138
a(I36
I25
I6
tp1139
a(I48
I20
I2
tp1140
a(I31
I28
I1
tp1141
a(I13
I46
I0
tp1142
a(I36
I17
I5
tp1143
a(I32
I17
I6
tp1144
a(I24
I47
I6
tp1145
a(I3
I44
I6
tp1146
a(I35
I37
I0
tp1147
a(I36
I17
I4
tp1148
a(I49
I46
I3
tp1149
a(I43
I18
I0
tp1150
a(I12
I46
I0
tp1151
a(I51
I40
I3
tp1152
a(I7
I29
I2
tp1153
a(I32
I27
I5
tp1154
a(I41
I47
I5
tp1155
a(I36
I27
I3
tp1156
a(I31
I26
I2
tp1157
a(I32
I27
I4
tp1158
a(I32
I26
I0
tp1159
a(I41
I47
I4
tp1160
a(I3
I49
I5
tp1161
a(I10
I33
I0
tp1162
a(I10
I14
I0
tp1163
a(I10
I15
I0
tp1164
a(I3
I49
I4
tp1165
a(I36
I45
I5
tp1166
a(I32
I45
I6
tp1167
a(I51
I19
I2
tp1168
a(I36
I45
I4
tp1169
a(I44
I46
I2
tp1170
a(I15
I46
I6
tp1171
a(I33
I46
I6
tp1172
a(I14
I46
I6
tp1173
a(I21
I38
I6
tp1174
a(I30
I46
I0
tp1175
a(I32
I25
I5
tp1176
a(I36
I25
I3
tp1177
a(I32
I25
I4
tp1178
a(I36
I17
I2
tp1179
a(I10
I30
I6
tp1180
a(I32
I17
I3
tp1181
a(I51
I40
I1
tp1182
a(I49
I46
I1
tp1183
a(I32
I27
I2
tp1184
a(I24
I47
I3
tp1185
a(I7
I14
I6
tp1186
a(I7
I33
I6
tp1187
a(I7
I15
I6
tp1188
a(I36
I16
I6
tp1189
a(I36
I18
I5
tp1190
a(I32
I18
I6
tp1191
a(I36
I18
I4
tp1192
a(I9
I20
I0
tp1193
a(I32
I45
I3
tp1194
a(I5
I43
I5
tp1195
a(I10
I12
I6
tp1196
a(I5
I43
I4
tp1197
a(I43
I29
I5
tp1198
a(I32
I25
I2
tp1199
a(I14
I46
I3
tp1200
a(I33
I46
I3
tp1201
a(I15
I46
I3
tp1202
a(I43
I29
I4
tp1203
a(I21
I38
I3
tp1204
a(I31
I42
I5
tp1205
a(I31
I42
I4
tp1206
a(I10
I13
I6
tp1207
a(I32
I17
I1
tp1208
a(I10
I30
I3
tp1209
a(I10
I22
I6
tp1210
a(I10
I49
I0
tp1211
a(I3
I14
I0
tp1212
a(I3
I15
I0
tp1213
a(I23
I47
I6
tp1214
a(I7
I15
I3
tp1215
a(I7
I14
I3
tp1216
a(I48
I20
I0
tp1217
a(I24
I47
I1
tp1218
a(I32
I16
I5
tp1219
a(I36
I16
I3
tp1220
a(I36
I18
I2
tp1221
a(I9
I28
I6
tp1222
a(I32
I16
I4
tp1223
a(I32
I18
I3
tp1224
a(I7
I29
I0
tp1225
a(I31
I17
I6
tp1226
a(I10
I12
I3
tp1227
a(I31
I26
I0
tp1228
a(I31
I27
I5
tp1229
a(I43
I29
I2
tp1230
a(I32
I42
I0
tp1231
a(I3
I30
I6
tp1232
a(I31
I27
I4
tp1233
a(I51
I19
I0
tp1234
a(I14
I46
I1
tp1235
a(I15
I46
I1
tp1236
a(I21
I38
I1
tp1237
a(I31
I42
I2
tp1238
a(I10
I13
I3
tp1239
a(I7
I49
I6
tp1240
a(I50
I47
I5
tp1241
a(I10
I22
I3
tp1242
a(I50
I47
I4
tp1243
a(I31
I45
I6
tp1244
a(I48
I28
I6
tp1245
a(I44
I46
I0
tp1246
a(I31
I25
I5
tp1247
a(I32
I16
I2
tp1248
a(I10
I11
I6
tp1249
a(I10
I34
I6
tp1250
a(I36
I17
I0
tp1251
a(I32
I18
I1
tp1252
a(I31
I25
I4
tp1253
a(I3
I12
I6
tp1254
a(I7
I44
I5
tp1255
a(I23
I47
I3
tp1256
a(I9
I28
I3
tp1257
a(I7
I44
I4
tp1258
a(I31
I17
I3
tp1259
a(I32
I27
I0
tp1260
a(I31
I27
I2
tp1261
a(I3
I13
I6
tp1262
a(I19
I50
I6
tp1263
a(I3
I49
I0
tp1264
a(I29
I46
I5
tp1265
a(I9
I26
I5
tp1266
a(I29
I46
I4
tp1267
a(I3
I22
I6
tp1268
a(I9
I26
I4
tp1269
a(I43
I15
I6
tp1270
a(I43
I14
I6
tp1271
a(I43
I33
I6
tp1272
a(I10
I22
I1
tp1273
a(I40
I23
I6
tp1274
a(I36
I45
I0
tp1275
a(I7
I49
I3
tp1276
a(I31
I18
I6
tp1277
a(I32
I25
I0
tp1278
a(I31
I45
I3
tp1279
a(I11
I38
I5
tp1280
a(I50
I47
I2
tp1281
a(I40
I50
I5
tp1282
a(I48
I28
I3
tp1283
a(I11
I38
I4
tp1284
a(I41
I47
I0
tp1285
a(I31
I25
I2
tp1286
a(I40
I50
I4
tp1287
a(I10
I11
I3
tp1288
a(I19
I23
I5
tp1289
a(I31
I17
I1
tp1290
a(I5
I43
I0
tp1291
a(I19
I23
I4
tp1292
a(I23
I47
I1
tp1293
a(I1
I51
I6
tp1294
a(I48
I26
I5
tp1295
a(I48
I26
I4
tp1296
a(I36
I18
I0
tp1297
a(I19
I50
I3
tp1298
a(I9
I26
I2
tp1299
a(I3
I22
I3
tp1300
a(I43
I14
I3
tp1301
a(I43
I15
I3
tp1302
a(I43
I33
I3
tp1303
a(I29
I46
I2
tp1304
a(I31
I16
I5
tp1305
a(I40
I23
I3
tp1306
a(I31
I16
I4
tp1307
a(I43
I29
I0
tp1308
a(I31
I18
I3
tp1309
a(I31
I45
I1
tp1310
a(I48
I28
I1
tp1311
a(I3
I11
I6
tp1312
a(I31
I42
I0
tp1313
a(I40
I50
I2
tp1314
a(I1
I51
I3
tp1315
a(I19
I23
I2
tp1316
a(I22
I38
I5
tp1317
a(I22
I38
I4
tp1318
a(I48
I26
I2
tp1319
a(I13
I38
I5
tp1320
a(I32
I16
I0
tp1321
a(I43
I49
I6
tp1322
a(I13
I38
I4
tp1323
a(I19
I50
I1
tp1324
a(I43
I15
I1
tp1325
a(I43
I14
I1
tp1326
a(I40
I23
I1
tp1327
a(I31
I18
I1
tp1328
a(I12
I38
I5
tp1329
a(I31
I16
I2
tp1330
a(I12
I38
I4
tp1331
a(I31
I27
I0
tp1332
a(I43
I44
I5
tp1333
a(I35
I40
I6
tp1334
a(I43
I44
I4
tp1335
a(I40
I24
I6
tp1336
a(I7
I30
I5
tp1337
a(I7
I30
I4
tp1338
a(I22
I38
I2
tp1339
a(I35
I19
I5
tp1340
a(I9
I42
I5
tp1341
a(I30
I38
I5
tp1342
a(I31
I25
I0
tp1343
a(I35
I19
I4
tp1344
a(I43
I49
I3
tp1345
a(I19
I41
I6
tp1346
a(I9
I42
I4
tp1347
a(I7
I44
I0
tp1348
a(I30
I38
I4
tp1349
a(I19
I24
I5
tp1350
a(I36
I29
I5
tp1351
a(I19
I24
I4
tp1352
a(I36
I29
I4
tp1353
a(I10
I21
I5
tp1354
a(I32
I29
I6
tp1355
a(I10
I37
I6
tp1356
a(I10
I21
I4
tp1357
a(I7
I12
I5
tp1358
a(I50
I47
I0
tp1359
a(I7
I12
I4
tp1360
a(I35
I40
I3
tp1361
a(I43
I44
I2
tp1362
a(I40
I41
I5
tp1363
a(I9
I26
I0
tp1364
a(I40
I41
I4
tp1365
a(I7
I13
I5
tp1366
a(I40
I24
I3
tp1367
a(I7
I13
I4
tp1368
a(I9
I17
I6
tp1369
a(I48
I42
I5
tp1370
a(I7
I22
I5
tp1371
a(I35
I19
I2
tp1372
a(I48
I42
I4
tp1373
a(I29
I46
I0
tp1374
a(I7
I22
I4
tp1375
a(I43
I49
I1
tp1376
a(I9
I27
I5
tp1377
a(I9
I27
I4
tp1378
a(I19
I41
I3
tp1379
a(I40
I50
I0
tp1380
a(I36
I29
I2
tp1381
a(I19
I24
I2
tp1382
a(I10
I21
I2
tp1383
a(I11
I38
I0
tp1384
a(I32
I29
I3
tp1385
a(I19
I23
I0
tp1386
a(I48
I26
I0
tp1387
a(I9
I45
I6
tp1388
a(I9
I25
I5
tp1389
a(I10
I8
I5
tp1390
a(I40
I24
I1
tp1391
a(I48
I17
I6
tp1392
a(I9
I25
I4
tp1393
a(I31
I16
I0
tp1394
a(I10
I8
I4
tp1395
a(I16
I46
I6
tp1396
a(I7
I22
I2
tp1397
a(I48
I27
I5
tp1398
a(I9
I17
I3
tp1399
a(I48
I42
I2
tp1400
a(I48
I27
I4
tp1401
a(I9
I27
I2
tp1402
a(I19
I41
I1
tp1403
a(I32
I29
I1
tp1404
a(I3
I21
I5
tp1405
a(I7
I11
I5
tp1406
a(I3
I21
I4
tp1407
a(I7
I11
I4
tp1408
a(I48
I45
I6
tp1409
a(I5
I10
I6
tp1410
a(I9
I18
I6
tp1411
a(I9
I45
I3
tp1412
a(I48
I25
I5
tp1413
a(I48
I25
I4
tp1414
a(I22
I38
I0
tp1415
a(I49
I38
I6
tp1416
a(I43
I30
I5
tp1417
a(I9
I25
I2
tp1418
a(I36
I14
I6
tp1419
a(I36
I33
I6
tp1420
a(I36
I15
I6
tp1421
a(I43
I30
I4
tp1422
a(I48
I17
I3
tp1423
a(I13
I38
I0
tp1424
a(I9
I17
I1
tp1425
a(I18
I46
I5
tp1426
a(I43
I44
I0
tp1427
a(I48
I27
I2
tp1428
a(I18
I46
I4
tp1429
a(I16
I46
I3
tp1430
a(I7
I30
I0
tp1431
a(I12
I38
I0
tp1432
a(I35
I19
I0
tp1433
a(I44
I38
I5
tp1434
a(I39
I48
I5
tp1435
a(I31
I29
I6
tp1436
a(I3
I21
I2
tp1437
a(I44
I38
I4
tp1438
a(I39
I48
I4
tp1439
a(I43
I12
I5
tp1440
a(I48
I45
I3
tp1441
a(I48
I18
I6
tp1442
a(I9
I42
I0
tp1443
a(I43
I12
I4
tp1444
a(I9
I16
I5
tp1445
a(I9
I18
I3
tp1446
a(I10
I21
I0
tp1447
a(I48
I25
I2
tp1448
a(I36
I29
I0
tp1449
a(I9
I16
I4
tp1450
a(I43
I30
I2
tp1451
a(I48
I17
I1
tp1452
a(I36
I14
I3
tp1453
a(I36
I15
I3
tp1454
a(I25
I46
I6
tp1455
a(I7
I12
I0
tp1456
a(I43
I13
I5
tp1457
a(I32
I14
I5
tp1458
a(I32
I33
I5
tp1459
a(I32
I15
I5
tp1460
a(I19
I24
I0
tp1461
a(I49
I38
I3
tp1462
a(I30
I38
I0
tp1463
a(I43
I13
I4
tp1464
a(I32
I33
I4
tp1465
a(I32
I15
I4
tp1466
a(I32
I14
I4
tp1467
a(I45
I46
I5
tp1468
a(I43
I22
I5
tp1469
a(I43
I22
I4
tp1470
a(I45
I46
I4
tp1471
a(I18
I46
I2
tp1472
a(I16
I46
I1
tp1473
a(I7
I13
I0
tp1474
a(I39
I48
I2
tp1475
a(I39
I9
I5
tp1476
a(I40
I41
I0
tp1477
a(I7
I22
I0
tp1478
a(I39
I9
I4
tp1479
a(I31
I29
I3
tp1480
a(I48
I42
I0
tp1481
a(I48
I45
I1
tp1482
a(I43
I12
I2
tp1483
a(I27
I46
I6
tp1484
a(I9
I27
I0
tp1485
a(I48
I16
I5
tp1486
a(I48
I18
I3
tp1487
a(I9
I18
I1
tp1488
a(I48
I16
I4
tp1489
a(I9
I16
I2
tp1490
a(I17
I46
I5
tp1491
a(I4
I23
I6
tp1492
a(I17
I46
I4
tp1493
a(I33
I38
I6
tp1494
a(I15
I38
I6
tp1495
a(I14
I38
I6
tp1496
a(I43
I13
I2
tp1497
a(I36
I49
I6
tp1498
a(I32
I15
I2
tp1499
a(I32
I14
I2
tp1500
a(I6
I48
I6
tp1501
a(I25
I46
I3
tp1502
a(I43
I22
I2
tp1503
a(I10
I8
I0
tp1504
a(I4
I50
I5
tp1505
a(I45
I46
I2
tp1506
a(I4
I50
I4
tp1507
a(I9
I25
I0
tp1508
a(I31
I29
I1
tp1509
a(I36
I44
I5
tp1510
a(I36
I44
I4
tp1511
a(I48
I27
I0
tp1512
a(I32
I44
I6
tp1513
a(I7
I21
I6
tp1514
a(I48
I18
I1
tp1515
a(I43
I11
I5
tp1516
a(I43
I34
I5
tp1517
a(I48
I16
I2
tp1518
a(I42
I46
I6
tp1519
a(I43
I34
I4
tp1520
a(I43
I11
I4
tp1521
a(I3
I21
I0
tp1522
a(I27
I46
I3
tp1523
a(I7
I11
I0
tp1524
a(I36
I49
I3
tp1525
a(I17
I46
I2
tp1526
a(I4
I23
I3
tp1527
a(I6
I48
I3
tp1528
a(I32
I49
I5
tp1529
a(I14
I38
I3
tp1530
a(I15
I38
I3
tp1531
a(I6
I9
I6
tp1532
a(I32
I49
I4
tp1533
a(I25
I46
I1
tp1534
a(I43
I30
I0
tp1535
a(I48
I25
I0
tp1536
a(I39
I48
I0
tp1537
a(I7
I21
I3
tp1538
a(I32
I44
I3
tp1539
a(I43
I11
I2
tp1540
a(I27
I46
I1
tp1541
a(I42
I46
I3
tp1542
a(I43
I12
I0
tp1543
a(I18
I46
I0
tp1544
a(I4
I23
I1
tp1545
a(I32
I49
I2
tp1546
a(I31
I15
I5
tp1547
a(I31
I33
I5
tp1548
a(I31
I14
I5
tp1549
a(I44
I38
I0
tp1550
a(I31
I14
I4
tp1551
a(I31
I15
I4
tp1552
a(I31
I33
I4
tp1553
a(I7
I8
I6
tp1554
a(I9
I16
I0
tp1555
a(I43
I13
I0
tp1556
a(I32
I14
I0
tp1557
a(I32
I33
I0
tp1558
a(I32
I15
I0
tp1559
a(I39
I9
I0
tp1560
a(I43
I22
I0
tp1561
a(I7
I21
I1
tp1562
a(I4
I24
I6
tp1563
a(I45
I46
I0
tp1564
a(I8
I23
I6
tp1565
a(I31
I33
I2
tp1566
a(I31
I15
I2
tp1567
a(I31
I14
I2
tp1568
a(I48
I16
I0
tp1569
a(I8
I50
I5
tp1570
a(I8
I50
I4
tp1571
a(I19
I20
I6
tp1572
a(I17
I46
I0
tp1573
a(I29
I38
I5
tp1574
a(I36
I44
I0
tp1575
a(I4
I24
I3
tp1576
a(I29
I38
I4
tp1577
a(I4
I50
I0
tp1578
a(I31
I44
I6
tp1579
a(I37
I50
I6
tp1580
a(I36
I30
I5
tp1581
a(I43
I21
I6
tp1582
a(I43
I34
I0
tp1583
a(I43
I11
I0
tp1584
a(I36
I30
I4
tp1585
a(I40
I20
I5
tp1586
a(I32
I30
I6
tp1587
a(I8
I23
I3
tp1588
a(I26
I46
I6
tp1589
a(I40
I20
I4
tp1590
a(I9
I29
I6
tp1591
a(I31
I49
I5
tp1592
a(I31
I49
I4
tp1593
a(I8
I50
I2
tp1594
a(I32
I49
I0
tp1595
a(I37
I23
I5
tp1596
a(I19
I20
I3
tp1597
a(I21
I23
I6
tp1598
a(I37
I23
I4
tp1599
a(I36
I12
I5
tp1600
a(I4
I24
I1
tp1601
a(I29
I38
I2
tp1602
a(I36
I12
I4
tp1603
a(I31
I44
I3
tp1604
a(I51
I48
I6
tp1605
a(I0
I46
I6
tp1606
a(I43
I21
I3
tp1607
a(I43
I37
I5
tp1608
a(I21
I50
I5
tp1609
a(I32
I12
I6
tp1610
a(I37
I50
I3
tp1611
a(I43
I37
I4
tp1612
a(I21
I50
I4
tp1613
a(I8
I23
I1
tp1614
a(I32
I30
I3
tp1615
a(I36
I13
I5
tp1616
a(I40
I20
I2
tp1617
a(I36
I13
I4
tp1618
a(I39
I31
I5
tp1619
a(I9
I29
I3
tp1620
a(I31
I49
I2
tp1621
a(I39
I31
I4
tp1622
a(I48
I29
I6
tp1623
a(I26
I46
I3
tp1624
a(I36
I22
I5
tp1625
a(I32
I13
I6
tp1626
a(I36
I22
I4
tp1627
a(I31
I33
I0
tp1628
a(I31
I14
I0
tp1629
a(I31
I15
I0
tp1630
a(I32
I22
I6
tp1631
a(I43
I8
I6
tp1632
a(I19
I20
I1
tp1633
a(I37
I23
I2
tp1634
a(I31
I44
I1
tp1635
a(I51
I48
I3
tp1636
a(I21
I23
I3
tp1637
a(I43
I21
I1
tp1638
a(I28
I46
I5
tp1639
a(I51
I9
I6
tp1640
a(I28
I46
I4
tp1641
a(I32
I12
I3
tp1642
a(I8
I24
I6
tp1643
a(I21
I50
I2
tp1644
a(I2
I35
I6
tp1645
a(I39
I31
I2
tp1646
a(I9
I29
I1
tp1647
a(I36
I22
I2
tp1648
a(I48
I29
I3
tp1649
a(I32
I13
I3
tp1650
a(I26
I46
I1
tp1651
a(I32
I22
I3
tp1652
a(I43
I8
I3
tp1653
a(I51
I48
I1
tp1654
a(I38
I47
I6
tp1655
a(I21
I23
I1
tp1656
a(I51
I9
I3
tp1657
a(I8
I50
I0
tp1658
a(I8
I41
I5
tp1659
a(I28
I46
I2
tp1660
a(I36
I11
I5
tp1661
a(I8
I24
I3
tp1662
a(I8
I41
I4
tp1663
a(I36
I11
I4
tp1664
a(I6
I31
I6
tp1665
a(I48
I29
I1
tp1666
a(I36
I30
I0
tp1667
a(I32
I34
I6
tp1668
a(I32
I11
I6
tp1669
a(I32
I22
I1
tp1670
a(I29
I38
I0
tp1671
a(I31
I30
I6
tp1672
a(I40
I20
I0
tp1673
a(I51
I9
I1
tp1674
a(I31
I49
I0
tp1675
a(I37
I24
I5
tp1676
a(I37
I41
I6
tp1677
a(I37
I24
I4
tp1678
a(I21
I24
I6
tp1679
a(I10
I19
I6
tp1680
a(I6
I31
I3
tp1681
a(I8
I24
I1
tp1682
a(I36
I12
I0
tp1683
a(I43
I37
I0
tp1684
a(I39
I31
I0
tp1685
a(I9
I33
I5
tp1686
a(I9
I14
I5
tp1687
a(I9
I15
I5
tp1688
a(I32
I11
I3
tp1689
a(I37
I23
I0
tp1690
a(I9
I33
I4
tp1691
a(I9
I15
I4
tp1692
a(I9
I14
I4
tp1693
a(I10
I40
I5
tp1694
a(I36
I13
I0
tp1695
a(I10
I40
I4
tp1696
a(I11
I50
I6
tp1697
a(I34
I50
I6
tp1698
a(I31
I12
I6
tp1699
a(I21
I50
I0
tp1700
a(I31
I30
I3
tp1701
a(I36
I22
I0
tp1702
a(I37
I24
I2
tp1703
a(I39
I32
I5
tp1704
a(I21
I41
I5
tp1705
a(I39
I32
I4
tp1706
a(I21
I24
I3
tp1707
a(I21
I41
I4
tp1708
a(I31
I13
I6
tp1709
a(I10
I19
I3
tp1710
a(I39
I36
I6
tp1711
a(I43
I4
I6
tp1712
a(I31
I22
I6
tp1713
a(I9
I15
I2
tp1714
a(I9
I14
I2
tp1715
a(I11
I23
I5
tp1716
a(I34
I23
I5
tp1717
a(I11
I23
I4
tp1718
a(I34
I23
I4
tp1719
a(I48
I33
I5
tp1720
a(I48
I15
I5
tp1721
a(I48
I14
I5
tp1722
a(I48
I15
I4
tp1723
a(I48
I33
I4
tp1724
a(I48
I14
I4
tp1725
a(I31
I30
I1
tp1726
a(I31
I12
I3
tp1727
a(I11
I50
I3
tp1728
a(I34
I50
I3
tp1729
a(I28
I46
I0
tp1730
a(I10
I19
I1
tp1731
a(I16
I38
I6
tp1732
a(I21
I24
I1
tp1733
a(I21
I41
I2
tp1734
a(I31
I13
I3
tp1735
a(I31
I22
I3
tp1736
a(I9
I44
I6
tp1737
a(I22
I50
I6
tp1738
a(I34
I23
I2
tp1739
a(I11
I23
I2
tp1740
a(I36
I11
I0
tp1741
a(I48
I14
I2
tp1742
a(I48
I33
I2
tp1743
a(I48
I15
I2
tp1744
a(I31
I12
I1
tp1745
a(I40
I28
I6
tp1746
a(I3
I19
I6
tp1747
a(I13
I50
I6
tp1748
a(I11
I50
I1
tp1749
a(I8
I41
I0
tp1750
a(I9
I49
I5
tp1751
a(I31
I13
I1
tp1752
a(I36
I21
I6
tp1753
a(I9
I49
I4
tp1754
a(I6
I32
I6
tp1755
a(I16
I38
I3
tp1756
a(I18
I38
I5
tp1757
a(I12
I50
I6
tp1758
a(I19
I28
I5
tp1759
a(I31
I34
I6
tp1760
a(I31
I11
I6
tp1761
a(I31
I22
I1
tp1762
a(I19
I28
I4
tp1763
a(I18
I38
I4
tp1764
a(I22
I23
I5
tp1765
a(I22
I23
I4
tp1766
a(I37
I24
I0
tp1767
a(I9
I44
I3
tp1768
a(I13
I23
I5
tp1769
a(I13
I23
I4
tp1770
a(I22
I50
I3
tp1771
a(I48
I44
I6
tp1772
a(I3
I19
I3
tp1773
a(I40
I28
I3
tp1774
a(I10
I40
I0
tp1775
a(I9
I15
I0
tp1776
a(I9
I33
I0
tp1777
a(I9
I14
I0
tp1778
a(I13
I50
I3
tp1779
a(I39
I32
I0
tp1780
a(I9
I49
I2
tp1781
a(I12
I23
I5
tp1782
a(I36
I21
I3
tp1783
a(I19
I26
I6
tp1784
a(I12
I23
I4
tp1785
a(I48
I49
I5
tp1786
a(I30
I50
I6
tp1787
a(I31
I34
I3
tp1788
a(I31
I11
I3
tp1789
a(I48
I49
I4
tp1790
a(I19
I28
I2
tp1791
a(I32
I21
I5
tp1792
a(I12
I50
I3
tp1793
a(I5
I35
I5
tp1794
a(I18
I38
I2
tp1795
a(I32
I21
I4
tp1796
a(I5
I35
I4
tp1797
a(I22
I23
I2
tp1798
a(I32
I37
I6
tp1799
a(I25
I38
I6
tp1800
a(I45
I38
I5
tp1801
a(I40
I26
I5
tp1802
a(I45
I38
I4
tp1803
a(I21
I41
I0
tp1804
a(I40
I26
I4
tp1805
a(I13
I23
I2
tp1806
a(I22
I50
I1
tp1807
a(I48
I44
I3
tp1808
a(I20
I46
I6
tp1809
a(I34
I24
I5
tp1810
a(I11
I24
I5
tp1811
a(I51
I31
I6
tp1812
a(I13
I50
I1
tp1813
a(I34
I41
I6
tp1814
a(I11
I41
I6
tp1815
a(I34
I24
I4
tp1816
a(I11
I24
I4
tp1817
a(I36
I21
I1
tp1818
a(I36
I8
I6
tp1819
a(I30
I23
I5
tp1820
a(I48
I14
I0
tp1821
a(I48
I33
I0
tp1822
a(I48
I15
I0
tp1823
a(I30
I23
I4
tp1824
a(I12
I23
I2
tp1825
a(I31
I11
I1
tp1826
a(I19
I26
I3
tp1827
a(I48
I49
I2
tp1828
a(I34
I23
I0
tp1829
a(I11
I23
I0
tp1830
a(I32
I21
I2
tp1831
a(I30
I50
I3
tp1832
a(I12
I50
I1
tp1833
a(I27
I38
I6
tp1834
a(I17
I38
I5
tp1835
a(I17
I38
I4
tp1836
a(I25
I38
I3
tp1837
a(I40
I26
I2
tp1838
a(I48
I44
I1
tp1839
a(I4
I20
I5
tp1840
a(I4
I20
I4
tp1841
a(I51
I31
I3
tp1842
a(I20
I46
I3
tp1843
a(I34
I24
I2
tp1844
a(I11
I24
I2
tp1845
a(I11
I41
I3
tp1846
a(I30
I23
I2
tp1847
a(I19
I26
I1
tp1848
a(I32
I8
I5
tp1849
a(I30
I50
I1
tp1850
a(I32
I8
I4
tp1851
a(I9
I49
I0
tp1852
a(I27
I38
I3
tp1853
a(I17
I38
I2
tp1854
a(I51
I31
I1
tp1855
a(I4
I20
I2
tp1856
a(I19
I28
I0
tp1857
a(I42
I38
I6
tp1858
a(I22
I24
I5
tp1859
a(I9
I30
I6
tp1860
a(I22
I24
I4
tp1861
a(I22
I41
I6
tp1862
a(I20
I46
I1
tp1863
a(I18
I38
I0
tp1864
a(I22
I23
I0
tp1865
a(I13
I24
I5
tp1866
a(I35
I48
I6
tp1867
a(I13
I24
I4
tp1868
a(I13
I41
I6
tp1869
a(I5
I35
I0
tp1870
a(I13
I23
I0
tp1871
a(I7
I40
I6
tp1872
a(I12
I24
I5
tp1873
a(I48
I49
I0
tp1874
a(I32
I21
I0
tp1875
a(I12
I24
I4
tp1876
a(I12
I41
I6
tp1877
a(I12
I23
I0
tp1878
a(I9
I30
I3
tp1879
a(I9
I12
I6
tp1880
a(I7
I19
I5
tp1881
a(I22
I24
I2
tp1882
a(I7
I19
I4
tp1883
a(I22
I41
I3
tp1884
a(I35
I48
I3
tp1885
a(I40
I26
I0
tp1886
a(I48
I30
I6
tp1887
a(I13
I24
I2
tp1888
a(I13
I41
I3
tp1889
a(I31
I21
I5
tp1890
a(I9
I13
I6
tp1891
a(I19
I42
I6
tp1892
a(I45
I38
I0
tp1893
a(I31
I21
I4
tp1894
a(I35
I9
I6
tp1895
a(I11
I24
I0
tp1896
a(I34
I24
I0
tp1897
a(I30
I24
I5
tp1898
a(I31
I37
I6
tp1899
a(I9
I22
I6
tp1900
a(I12
I24
I2
tp1901
a(I44
I50
I6
tp1902
a(I30
I24
I4
tp1903
a(I30
I23
I0
tp1904
a(I2
I51
I6
tp1905
a(I30
I41
I6
tp1906
a(I12
I41
I3
tp1907
a(I7
I19
I2
tp1908
a(I40
I42
I5
tp1909
a(I9
I12
I3
tp1910
a(I35
I48
I1
tp1911
a(I40
I42
I4
tp1912
a(I49
I23
I6
tp1913
a(I39
I43
I6
tp1914
a(I22
I41
I1
tp1915
a(I51
I32
I6
tp1916
a(I48
I30
I3
tp1917
a(I49
I50
I5
tp1918
a(I48
I12
I6
tp1919
a(I49
I50
I4
tp1920
a(I17
I38
I0
tp1921
a(I4
I20
I0
tp1922
a(I31
I21
I2
tp1923
a(I35
I9
I3
tp1924
a(I9
I13
I3
tp1925
a(I19
I42
I3
tp1926
a(I44
I23
I5
tp1927
a(I2
I51
I3
tp1928
a(I32
I8
I0
tp1929
a(I44
I23
I4
tp1930
a(I31
I37
I3
tp1931
a(I9
I22
I3
tp1932
a(I30
I24
I2
tp1933
a(I48
I13
I6
tp1934
a(I44
I50
I3
tp1935
a(I8
I20
I5
tp1936
a(I30
I41
I3
tp1937
a(I8
I20
I4
tp1938
a(I19
I27
I6
tp1939
a(I39
I43
I3
tp1940
a(I48
I22
I6
tp1941
a(I51
I32
I3
tp1942
a(I48
I30
I1
tp1943
a(I49
I23
I3
tp1944
a(I48
I12
I3
tp1945
a(I49
I50
I2
tp1946
a(I51
I36
I5
tp1947
a(I40
I27
I5
tp1948
a(I19
I42
I1
tp1949
a(I51
I36
I4
tp1950
a(I40
I17
I6
tp1951
a(I40
I27
I4
tp1952
a(I31
I8
I5
tp1953
a(I22
I24
I0
tp1954
a(I9
I22
I1
tp1955
a(I31
I8
I4
tp1956
a(I44
I23
I2
tp1957
a(I48
I13
I3
tp1958
a(I37
I20
I6
tp1959
a(I13
I24
I0
tp1960
a(I51
I32
I1
tp1961
a(I44
I50
I1
tp1962
a(I9
I34
I6
tp1963
a(I9
I11
I6
tp1964
a(I8
I20
I2
tp1965
a(I19
I17
I5
tp1966
a(I19
I25
I6
tp1967
a(I48
I22
I3
tp1968
a(I19
I27
I3
tp1969
a(I19
I17
I4
tp1970
a(I49
I23
I1
tp1971
a(I48
I12
I1
tp1972
a(I7
I19
I0
tp1973
a(I12
I24
I0
tp1974
a(I51
I36
I2
tp1975
a(I26
I38
I6
tp1976
a(I40
I25
I5
tp1977
a(I40
I27
I2
tp1978
a(I40
I45
I6
tp1979
a(I40
I17
I3
tp1980
a(I31
I8
I2
tp1981
a(I40
I25
I4
tp1982
a(I48
I13
I1
tp1983
a(I31
I21
I0
tp1984
a(I9
I11
I3
tp1985
a(I37
I20
I3
tp1986
a(I48
I22
I1
tp1987
a(I19
I27
I1
tp1988
a(I19
I45
I5
tp1989
a(I19
I17
I2
tp1990
a(I43
I40
I6
tp1991
a(I19
I25
I3
tp1992
a(I21
I20
I5
tp1993
a(I15
I23
I6
tp1994
a(I33
I23
I6
tp1995
a(I14
I23
I6
tp1996
a(I19
I45
I4
tp1997
a(I21
I20
I4
tp1998
a(I14
I50
I5
tp1999
a(I15
I50
I5
tp2000
a(I33
I50
I5
tp2001
a(I48
I34
I6
tp2002
a(I48
I11
I6
tp2003
a(I33
I50
I4
tp2004
a(I14
I50
I4
tp2005
a(I15
I50
I4
tp2006
a(I30
I24
I0
tp2007
a(I43
I19
I5
tp2008
a(I40
I42
I0
tp2009
a(I40
I17
I1
tp2010
a(I6
I43
I5
tp2011
a(I40
I25
I2
tp2012
a(I43
I19
I4
tp2013
a(I40
I45
I3
tp2014
a(I6
I43
I4
tp2015
a(I26
I38
I3
tp2016
a(I37
I20
I1
tp2017
a(I49
I50
I0
tp2018
a(I49
I24
I6
tp2019
a(I43
I40
I3
tp2020
a(I19
I25
I1
tp2021
a(I19
I45
I2
tp2022
a(I40
I18
I6
tp2023
a(I21
I20
I2
tp2024
a(I33
I23
I3
tp2025
a(I15
I23
I3
tp2026
a(I14
I23
I3
tp2027
a(I48
I11
I3
tp2028
a(I48
I34
I3
tp2029
a(I44
I23
I0
tp2030
a(I14
I50
I2
tp2031
a(I15
I50
I2
tp2032
a(I33
I50
I2
tp2033
a(I43
I19
I2
tp2034
a(I51
I36
I0
tp2035
a(I8
I20
I0
tp2036
a(I44
I24
I5
tp2037
a(I28
I38
I5
tp2038
a(I44
I24
I4
tp2039
a(I19
I18
I5
tp2040
a(I19
I18
I4
tp2041
a(I28
I38
I4
tp2042
a(I44
I41
I6
tp2043
a(I39
I7
I6
tp2044
a(I4
I28
I6
tp2045
a(I31
I8
I0
tp2046
a(I19
I16
I6
tp2047
a(I40
I27
I0
tp2048
a(I49
I24
I3
tp2049
a(I40
I18
I3
tp2050
a(I48
I11
I1
tp2051
a(I33
I23
I1
tp2052
a(I14
I23
I1
tp2053
a(I15
I23
I1
tp2054
a(I49
I41
I5
tp2055
a(I49
I41
I4
tp2056
a(I40
I16
I5
tp2057
a(I19
I17
I0
tp2058
a(I40
I16
I4
tp2059
a(I44
I24
I2
tp2060
a(I19
I18
I2
tp2061
a(I44
I41
I3
tp2062
a(I19
I16
I3
tp2063
a(I46
I47
I6
tp2064
a(I40
I25
I0
tp2065
a(I31
I4
I5
tp2066
a(I49
I24
I1
tp2067
a(I40
I18
I1
tp2068
a(I31
I4
I4
tp2069
a(I49
I41
I2
tp2070
a(I40
I16
I2
tp2071
a(I19
I45
I0
tp2072
a(I6
I43
I0
tp2073
a(I21
I20
I0
tp2074
a(I43
I19
I0
tp2075
a(I19
I16
I1
tp2076
a(I4
I26
I5
tp2077
a(I33
I50
I0
tp2078
a(I14
I50
I0
tp2079
a(I15
I50
I0
tp2080
a(I4
I26
I4
tp2081
a(I5
I51
I5
tp2082
a(I5
I51
I4
tp2083
a(I33
I24
I6
tp2084
a(I14
I24
I6
tp2085
a(I15
I24
I6
tp2086
a(I46
I47
I3
tp2087
a(I29
I50
I6
tp2088
a(I9
I21
I5
tp2089
a(I9
I21
I4
tp2090
a(I41
I46
I6
tp2091
a(I35
I31
I6
tp2092
a(I5
I51
I2
tp2093
a(I34
I20
I6
tp2094
a(I11
I20
I6
tp2095
a(I19
I18
I0
tp2096
a(I9
I37
I6
tp2097
a(I44
I24
I0
tp2098
a(I14
I24
I3
tp2099
a(I33
I24
I3
tp2100
a(I15
I24
I3
tp2101
a(I28
I38
I0
tp2102
a(I29
I23
I5
tp2103
a(I15
I41
I5
tp2104
a(I33
I41
I5
tp2105
a(I14
I41
I5
tp2106
a(I29
I23
I4
tp2107
a(I14
I41
I4
tp2108
a(I15
I41
I4
tp2109
a(I33
I41
I4
tp2110
a(I29
I50
I3
tp2111
a(I9
I21
I2
tp2112
a(I35
I31
I3
tp2113
a(I49
I41
I0
tp2114
a(I40
I16
I0
tp2115
a(I41
I46
I3
tp2116
a(I11
I20
I3
tp2117
a(I34
I20
I3
tp2118
a(I24
I46
I5
tp2119
a(I24
I46
I4
tp2120
a(I48
I21
I5
tp2121
a(I14
I24
I1
tp2122
a(I33
I24
I1
tp2123
a(I15
I24
I1
tp2124
a(I31
I4
I0
tp2125
a(I48
I21
I4
tp2126
a(I29
I23
I2
tp2127
a(I14
I41
I2
tp2128
a(I15
I41
I2
tp2129
a(I8
I28
I6
tp2130
a(I29
I50
I1
tp2131
a(I48
I37
I6
tp2132
a(I35
I31
I1
tp2133
a(I5
I51
I0
tp2134
a(I11
I20
I1
tp2135
a(I34
I20
I1
tp2136
a(I9
I8
I5
tp2137
a(I48
I21
I2
tp2138
a(I24
I46
I2
tp2139
a(I9
I8
I4
tp2140
a(I4
I26
I0
tp2141
a(I22
I20
I6
tp2142
a(I51
I43
I5
tp2143
a(I8
I28
I3
tp2144
a(I48
I37
I3
tp2145
a(I51
I43
I4
tp2146
a(I13
I20
I6
tp2147
a(I9
I21
I0
tp2148
a(I12
I20
I6
tp2149
a(I51
I43
I2
tp2150
a(I22
I20
I3
tp2151
a(I37
I28
I5
tp2152
a(I48
I8
I5
tp2153
a(I37
I28
I4
tp2154
a(I8
I26
I5
tp2155
a(I48
I8
I4
tp2156
a(I13
I20
I3
tp2157
a(I8
I26
I4
tp2158
a(I33
I41
I0
tp2159
a(I14
I41
I0
tp2160
a(I15
I41
I0
tp2161
a(I29
I23
I0
tp2162
a(I21
I28
I6
tp2163
a(I12
I20
I3
tp2164
a(I48
I21
I0
tp2165
a(I36
I40
I6
tp2166
a(I22
I20
I1
tp2167
a(I48
I8
I2
tp2168
a(I30
I20
I6
tp2169
a(I13
I20
I1
tp2170
a(I8
I26
I2
tp2171
a(I29
I24
I5
tp2172
a(I24
I46
I0
tp2173
a(I29
I24
I4
tp2174
a(I36
I19
I5
tp2175
a(I36
I19
I4
tp2176
a(I35
I32
I6
tp2177
a(I37
I26
I6
tp2178
a(I21
I28
I3
tp2179
a(I29
I41
I6
tp2180
a(I12
I20
I1
tp2181
a(I9
I8
I0
tp2182
a(I51
I43
I0
tp2183
a(I50
I46
I6
tp2184
a(I32
I19
I6
tp2185
a(I23
I46
I5
tp2186
a(I23
I46
I4
tp2187
a(I30
I20
I3
tp2188
a(I20
I38
I6
tp2189
a(I36
I19
I2
tp2190
a(I29
I24
I2
tp2191
a(I35
I32
I3
tp2192
a(I4
I27
I5
tp2193
a(I32
I40
I5
tp2194
a(I21
I28
I1
tp2195
a(I32
I40
I4
tp2196
a(I4
I27
I4
tp2197
a(I37
I26
I3
tp2198
a(I4
I17
I6
tp2199
a(I29
I41
I3
tp2200
a(I21
I26
I5
tp2201
a(I40
I29
I6
tp2202
a(I39
I10
I5
tp2203
a(I21
I26
I4
tp2204
a(I32
I19
I3
tp2205
a(I35
I36
I5
tp2206
a(I39
I10
I4
tp2207
a(I35
I36
I4
tp2208
a(I50
I46
I3
tp2209
a(I30
I20
I1
tp2210
a(I23
I46
I2
tp2211
a(I20
I38
I3
tp2212
a(I19
I29
I5
tp2213
a(I48
I8
I0
tp2214
a(I19
I29
I4
tp2215
a(I37
I28
I0
tp2216
a(I29
I41
I1
tp2217
a(I4
I17
I3
tp2218
a(I8
I26
I0
tp2219
a(I4
I25
I5
tp2220
a(I4
I25
I4
tp2221
a(I32
I19
I1
tp2222
a(I21
I26
I2
tp2223
a(I4
I45
I6
tp2224
a(I40
I29
I3
tp2225
a(I50
I46
I1
tp2226
a(I20
I38
I1
tp2227
a(I19
I29
I2
tp2228
a(I51
I7
I5
tp2229
a(I36
I19
I0
tp2230
a(I51
I7
I4
tp2231
a(I40
I29
I1
tp2232
a(I29
I24
I0
tp2233
a(I51
I7
I2
tp2234
a(I48
I4
I5
tp2235
a(I48
I4
I4
tp2236
a(I32
I40
I0
tp2237
a(I39
I10
I0
tp2238
a(I4
I27
I0
tp2239
a(I23
I46
I0
tp2240
a(I4
I18
I6
tp2241
a(I35
I36
I0
tp2242
a(I8
I42
I5
tp2243
a(I8
I42
I4
tp2244
a(I21
I26
I0
tp2245
a(I6
I10
I6
tp2246
a(I16
I23
I6
tp2247
a(I16
I50
I5
tp2248
a(I5
I39
I6
tp2249
a(I16
I50
I4
tp2250
a(I19
I29
I0
tp2251
a(I4
I18
I3
tp2252
a(I18
I50
I6
tp2253
a(I4
I25
I0
tp2254
a(I44
I20
I6
tp2255
a(I4
I16
I5
tp2256
a(I51
I7
I0
tp2257
a(I4
I16
I4
tp2258
a(I11
I28
I5
tp2259
a(I34
I28
I5
tp2260
a(I37
I42
I6
tp2261
a(I16
I23
I3
tp2262
a(I34
I28
I4
tp2263
a(I11
I28
I4
tp2264
a(I16
I50
I2
tp2265
a(I10
I48
I5
tp2266
a(I31
I19
I6
tp2267
a(I10
I48
I4
tp2268
a(I49
I20
I5
tp2269
a(I49
I20
I4
tp2270
a(I18
I23
I5
tp2271
a(I8
I27
I5
tp2272
a(I18
I23
I4
tp2273
a(I18
I50
I3
tp2274
a(I8
I27
I4
tp2275
a(I31
I40
I5
tp2276
a(I31
I40
I4
tp2277
a(I8
I17
I6
tp2278
a(I44
I20
I3
tp2279
a(I11
I28
I2
tp2280
a(I16
I23
I1
tp2281
a(I10
I48
I2
tp2282
a(I31
I19
I3
tp2283
a(I48
I4
I0
tp2284
a(I49
I20
I2
tp2285
a(I19
I33
I6
tp2286
a(I19
I14
I6
tp2287
a(I19
I15
I6
tp2288
a(I21
I42
I5
tp2289
a(I21
I42
I4
tp2290
a(I18
I23
I2
tp2291
a(I8
I27
I2
tp2292
a(I18
I50
I1
tp2293
a(I31
I40
I2
tp2294
a(I34
I26
I6
tp2295
a(I11
I26
I6
tp2296
a(I45
I50
I6
tp2297
a(I8
I17
I3
tp2298
a(I44
I20
I1
tp2299
a(I40
I33
I5
tp2300
a(I40
I15
I5
tp2301
a(I40
I14
I5
tp2302
a(I8
I42
I0
tp2303
a(I40
I33
I4
tp2304
a(I40
I14
I4
tp2305
a(I40
I15
I4
tp2306
a(I8
I25
I5
tp2307
a(I31
I19
I1
tp2308
a(I8
I25
I4
tp2309
a(I10
I9
I5
tp2310
a(I37
I27
I6
tp2311
a(I10
I9
I4
tp2312
a(I8
I45
I6
tp2313
a(I19
I14
I3
tp2314
a(I19
I15
I3
tp2315
a(I19
I33
I3
tp2316
a(I21
I42
I2
tp2317
a(I16
I50
I0
tp2318
a(I45
I23
I5
tp2319
a(I11
I26
I3
tp2320
a(I34
I26
I3
tp2321
a(I45
I23
I4
tp2322
a(I8
I17
I1
tp2323
a(I45
I50
I3
tp2324
a(I40
I14
I2
tp2325
a(I40
I15
I2
tp2326
a(I25
I23
I6
tp2327
a(I25
I50
I5
tp2328
a(I25
I50
I4
tp2329
a(I8
I25
I2
tp2330
a(I22
I28
I5
tp2331
a(I22
I28
I4
tp2332
a(I17
I50
I6
tp2333
a(I37
I27
I3
tp2334
a(I10
I48
I0
tp2335
a(I8
I45
I3
tp2336
a(I4
I16
I0
tp2337
a(I19
I14
I1
tp2338
a(I19
I15
I1
tp2339
a(I19
I33
I1
tp2340
a(I37
I17
I5
tp2341
a(I13
I28
I5
tp2342
a(I37
I17
I4
tp2343
a(I34
I28
I0
tp2344
a(I11
I28
I0
tp2345
a(I13
I28
I4
tp2346
a(I37
I25
I6
tp2347
a(I11
I26
I1
tp2348
a(I21
I27
I5
tp2349
a(I51
I3
I6
tp2350
a(I45
I23
I2
tp2351
a(I21
I27
I4
tp2352
a(I45
I50
I1
tp2353
a(I49
I20
I0
tp2354
a(I31
I40
I0
tp2355
a(I21
I17
I6
tp2356
a(I25
I23
I3
tp2357
a(I25
I50
I2
tp2358
a(I8
I27
I0
tp2359
a(I22
I28
I2
tp2360
a(I18
I23
I0
tp2361
a(I17
I23
I5
tp2362
a(I12
I28
I5
tp2363
a(I17
I23
I4
tp2364
a(I12
I28
I4
tp2365
a(I17
I50
I3
tp2366
a(I37
I17
I2
tp2367
a(I27
I23
I6
tp2368
a(I27
I50
I5
tp2369
a(I13
I28
I2
tp2370
a(I16
I24
I6
tp2371
a(I27
I50
I4
tp2372
a(I8
I18
I6
tp2373
a(I51
I3
I3
tp2374
a(I14
I20
I5
tp2375
a(I15
I20
I5
tp2376
a(I33
I20
I5
tp2377
a(I3
I48
I5
tp2378
a(I37
I25
I3
tp2379
a(I14
I20
I4
tp2380
a(I33
I20
I4
tp2381
a(I15
I20
I4
tp2382
a(I21
I27
I2
tp2383
a(I3
I48
I4
tp2384
a(I37
I45
I5
tp2385
a(I22
I26
I6
tp2386
a(I21
I42
I0
tp2387
a(I37
I45
I4
tp2388
a(I25
I23
I1
tp2389
a(I21
I17
I3
tp2390
a(I10
I9
I0
tp2391
a(I12
I28
I2
tp2392
a(I21
I25
I5
tp2393
a(I40
I15
I0
tp2394
a(I40
I14
I0
tp2395
a(I40
I33
I0
tp2396
a(I17
I23
I2
tp2397
a(I17
I50
I1
tp2398
a(I13
I26
I6
tp2399
a(I21
I25
I4
tp2400
a(I8
I25
I0
tp2401
a(I27
I23
I3
tp2402
a(I27
I50
I2
tp2403
a(I21
I45
I6
tp2404
a(I8
I18
I3
tp2405
a(I16
I24
I3
tp2406
a(I15
I20
I2
tp2407
a(I33
I20
I2
tp2408
a(I14
I20
I2
tp2409
a(I19
I49
I6
tp2410
a(I40
I44
I6
tp2411
a(I30
I28
I5
tp2412
a(I30
I28
I4
tp2413
a(I21
I17
I1
tp2414
a(I22
I26
I3
tp2415
a(I16
I41
I5
tp2416
a(I12
I26
I6
tp2417
a(I16
I41
I4
tp2418
a(I18
I24
I5
tp2419
a(I8
I16
I5
tp2420
a(I21
I25
I2
tp2421
a(I18
I24
I4
tp2422
a(I8
I16
I4
tp2423
a(I45
I23
I0
tp2424
a(I19
I44
I5
tp2425
a(I40
I49
I5
tp2426
a(I13
I26
I3
tp2427
a(I40
I49
I4
tp2428
a(I19
I44
I4
tp2429
a(I8
I18
I1
tp2430
a(I27
I23
I1
tp2431
a(I21
I45
I3
tp2432
a(I16
I24
I1
tp2433
a(I25
I50
I0
tp2434
a(I22
I28
I0
tp2435
a(I18
I41
I6
tp2436
a(I42
I50
I5
tp2437
a(I42
I23
I6
tp2438
a(I37
I17
I0
tp2439
a(I19
I49
I3
tp2440
a(I40
I44
I3
tp2441
a(I30
I28
I2
tp2442
a(I42
I50
I4
tp2443
a(I22
I26
I1
tp2444
a(I13
I28
I0
tp2445
a(I16
I41
I2
tp2446
a(I12
I26
I3
tp2447
a(I21
I27
I0
tp2448
a(I8
I16
I2
tp2449
a(I18
I24
I2
tp2450
a(I37
I18
I5
tp2451
a(I13
I26
I1
tp2452
a(I40
I49
I2
tp2453
a(I19
I44
I2
tp2454
a(I37
I18
I4
tp2455
a(I35
I43
I5
tp2456
a(I21
I45
I1
tp2457
a(I35
I43
I4
tp2458
a(I12
I28
I0
tp2459
a(I3
I48
I0
tp2460
a(I19
I49
I1
tp2461
a(I18
I41
I3
tp2462
a(I17
I23
I0
tp2463
a(I30
I26
I6
tp2464
a(I42
I50
I2
tp2465
a(I42
I23
I3
tp2466
a(I21
I18
I6
tp2467
a(I37
I16
I6
tp2468
a(I12
I26
I1
tp2469
a(I27
I50
I0
tp2470
a(I14
I20
I0
tp2471
a(I15
I20
I0
tp2472
a(I33
I20
I0
tp2473
a(I37
I18
I2
tp2474
a(I35
I43
I2
tp2475
a(I37
I45
I0
tp2476
a(I51
I10
I6
tp2477
a(I45
I24
I5
tp2478
a(I21
I25
I0
tp2479
a(I45
I24
I4
tp2480
a(I18
I41
I1
tp2481
a(I34
I42
I6
tp2482
a(I11
I42
I6
tp2483
a(I30
I26
I3
tp2484
a(I42
I23
I1
tp2485
a(I25
I24
I6
tp2486
a(I21
I18
I3
tp2487
a(I37
I16
I3
tp2488
a(I45
I41
I6
tp2489
a(I30
I28
I0
tp2490
a(I51
I10
I3
tp2491
a(I16
I41
I0
tp2492
a(I8
I16
I0
tp2493
a(I40
I49
I0
tp2494
a(I19
I44
I0
tp2495
a(I45
I24
I2
tp2496
a(I21
I16
I5
tp2497
a(I21
I16
I4
tp2498
a(I18
I24
I0
tp2499
a(I30
I26
I1
tp2500
a(I11
I42
I3
tp2501
a(I21
I18
I1
tp2502
a(I25
I24
I3
tp2503
a(I51
I10
I1
tp2504
a(I45
I41
I3
tp2505
a(I17
I24
I5
tp2506
a(I17
I24
I4
tp2507
a(I35
I43
I0
tp2508
a(I42
I50
I0
tp2509
a(I25
I41
I5
tp2510
a(I25
I41
I4
tp2511
a(I27
I24
I6
tp2512
a(I21
I16
I2
tp2513
a(I37
I18
I0
tp2514
a(I17
I41
I6
tp2515
a(I25
I24
I1
tp2516
a(I17
I24
I2
tp2517
a(I34
I27
I6
tp2518
a(I11
I27
I6
tp2519
a(I29
I20
I6
tp2520
a(I25
I41
I2
tp2521
a(I27
I24
I3
tp2522
a(I17
I41
I3
tp2523
a(I45
I24
I0
tp2524
a(I27
I41
I5
tp2525
a(I41
I38
I6
tp2526
a(I4
I29
I6
tp2527
a(I27
I41
I4
tp2528
a(I11
I27
I3
tp2529
a(I34
I27
I3
tp2530
a(I29
I20
I3
tp2531
a(I22
I42
I6
tp2532
a(I7
I48
I6
tp2533
a(I27
I24
I1
tp2534
a(I11
I17
I5
tp2535
a(I34
I17
I5
tp2536
a(I34
I17
I4
tp2537
a(I11
I17
I4
tp2538
a(I17
I41
I1
tp2539
a(I9
I19
I6
tp2540
a(I13
I42
I6
tp2541
a(I21
I16
I0
tp2542
a(I34
I25
I6
tp2543
a(I11
I25
I6
tp2544
a(I27
I41
I2
tp2545
a(I11
I27
I1
tp2546
a(I4
I29
I3
tp2547
a(I42
I24
I6
tp2548
a(I49
I28
I6
tp2549
a(I9
I40
I5
tp2550
a(I29
I20
I1
tp2551
a(I9
I40
I4
tp2552
a(I7
I48
I3
tp2553
a(I22
I42
I3
tp2554
a(I34
I17
I2
tp2555
a(I11
I17
I2
tp2556
a(I44
I28
I5
tp2557
a(I12
I42
I6
tp2558
a(I9
I19
I3
tp2559
a(I17
I24
I0
tp2560
a(I40
I30
I6
tp2561
a(I44
I28
I4
tp2562
a(I24
I38
I5
tp2563
a(I13
I42
I3
tp2564
a(I24
I38
I4
tp2565
a(I25
I41
I0
tp2566
a(I11
I25
I3
tp2567
a(I34
I25
I3
tp2568
a(I19
I30
I5
tp2569
a(I49
I28
I3
tp2570
a(I42
I24
I3
tp2571
a(I19
I30
I4
tp2572
a(I22
I42
I1
tp2573
a(I11
I45
I5
tp2574
a(I34
I45
I5
tp2575
a(I26
I50
I5
tp2576
a(I34
I45
I4
tp2577
a(I11
I45
I4
tp2578
a(I26
I50
I4
tp2579
a(I26
I23
I6
tp2580
a(I9
I19
I1
tp2581
a(I44
I28
I2
tp2582
a(I12
I42
I3
tp2583
a(I40
I30
I3
tp2584
a(I42
I41
I5
tp2585
a(I42
I41
I4
tp2586
a(I7
I9
I6
tp2587
a(I24
I38
I2
tp2588
a(I11
I25
I1
tp2589
a(I10
I31
I5
tp2590
a(I35
I7
I5
tp2591
a(I10
I31
I4
tp2592
a(I35
I7
I4
tp2593
a(I22
I27
I6
tp2594
a(I49
I28
I1
tp2595
a(I19
I30
I2
tp2596
a(I42
I24
I1
tp2597
a(I48
I19
I6
tp2598
a(I11
I45
I2
tp2599
a(I26
I50
I2
tp2600
a(I13
I27
I6
tp2601
a(I26
I23
I3
tp2602
a(I48
I40
I5
tp2603
a(I27
I41
I0
tp2604
a(I30
I42
I6
tp2605
a(I48
I40
I4
tp2606
a(I40
I12
I6
tp2607
a(I10
I31
I2
tp2608
a(I34
I17
I0
tp2609
a(I11
I17
I0
tp2610
a(I44
I26
I6
tp2611
a(I48
I19
I3
tp2612
a(I22
I27
I3
tp2613
a(I19
I12
I5
tp2614
a(I19
I12
I4
tp2615
a(I9
I40
I0
tp2616
a(I12
I27
I6
tp2617
a(I49
I26
I5
tp2618
a(I22
I17
I5
tp2619
a(I48
I40
I2
tp2620
a(I26
I23
I1
tp2621
a(I49
I26
I4
tp2622
a(I13
I27
I3
tp2623
a(I22
I17
I4
tp2624
a(I40
I13
I6
tp2625
a(I30
I42
I3
tp2626
a(I40
I12
I3
tp2627
a(I28
I50
I6
tp2628
a(I48
I19
I1
tp2629
a(I13
I17
I5
tp2630
a(I22
I25
I6
tp2631
a(I44
I26
I3
tp2632
a(I22
I27
I1
tp2633
a(I13
I17
I4
tp2634
a(I44
I28
I0
tp2635
a(I19
I13
I5
tp2636
a(I40
I22
I6
tp2637
a(I19
I12
I2
tp2638
a(I11
I18
I5
tp2639
a(I34
I18
I5
tp2640
a(I19
I13
I4
tp2641
a(I34
I18
I4
tp2642
a(I11
I18
I4
tp2643
a(I19
I30
I0
tp2644
a(I24
I38
I0
tp2645
a(I13
I27
I1
tp2646
a(I12
I27
I3
tp2647
a(I49
I26
I2
tp2648
a(I13
I25
I6
tp2649
a(I22
I17
I2
tp2650
a(I19
I22
I5
tp2651
a(I40
I13
I3
tp2652
a(I19
I22
I4
tp2653
a(I34
I45
I0
tp2654
a(I11
I45
I0
tp2655
a(I28
I50
I3
tp2656
a(I35
I7
I0
tp2657
a(I28
I23
I5
tp2658
a(I12
I17
I5
tp2659
a(I10
I31
I0
tp2660
a(I44
I26
I1
tp2661
a(I13
I17
I2
tp2662
a(I26
I50
I0
tp2663
a(I28
I23
I4
tp2664
a(I12
I17
I4
tp2665
a(I22
I25
I3
tp2666
a(I19
I13
I2
tp2667
a(I40
I22
I3
tp2668
a(I34
I18
I2
tp2669
a(I11
I18
I2
tp2670
a(I11
I16
I6
tp2671
a(I34
I16
I6
tp2672
a(I42
I41
I0
tp2673
a(I12
I27
I1
tp2674
a(I12
I25
I6
tp2675
a(I22
I45
I5
tp2676
a(I13
I25
I3
tp2677
a(I19
I22
I2
tp2678
a(I22
I45
I4
tp2679
a(I30
I27
I6
tp2680
a(I48
I40
I0
tp2681
a(I15
I28
I6
tp2682
a(I14
I28
I6
tp2683
a(I33
I28
I6
tp2684
a(I28
I50
I1
tp2685
a(I12
I17
I2
tp2686
a(I22
I25
I1
tp2687
a(I13
I45
I5
tp2688
a(I28
I23
I2
tp2689
a(I40
I22
I1
tp2690
a(I13
I45
I4
tp2691
a(I34
I16
I3
tp2692
a(I11
I16
I3
tp2693
a(I13
I25
I1
tp2694
a(I19
I12
I0
tp2695
a(I12
I25
I3
tp2696
a(I22
I45
I2
tp2697
a(I30
I27
I3
tp2698
a(I14
I28
I3
tp2699
a(I33
I28
I3
tp2700
a(I15
I28
I3
tp2701
a(I49
I26
I0
tp2702
a(I22
I17
I0
tp2703
a(I12
I45
I5
tp2704
a(I13
I45
I2
tp2705
a(I12
I45
I4
tp2706
a(I30
I17
I5
tp2707
a(I11
I16
I1
tp2708
a(I30
I17
I4
tp2709
a(I8
I29
I6
tp2710
a(I19
I13
I0
tp2711
a(I13
I17
I0
tp2712
a(I12
I25
I1
tp2713
a(I30
I27
I1
tp2714
a(I11
I18
I0
tp2715
a(I34
I18
I0
tp2716
a(I30
I25
I6
tp2717
a(I14
I28
I1
tp2718
a(I15
I28
I1
tp2719
a(I19
I22
I0
tp2720
a(I3
I31
I5
tp2721
a(I12
I45
I2
tp2722
a(I3
I31
I4
tp2723
a(I4
I15
I5
tp2724
a(I4
I14
I5
tp2725
a(I43
I48
I6
tp2726
a(I30
I17
I2
tp2727
a(I4
I15
I4
tp2728
a(I4
I14
I4
tp2729
a(I23
I38
I5
tp2730
a(I23
I38
I4
tp2731
a(I8
I29
I3
tp2732
a(I12
I17
I0
tp2733
a(I50
I38
I6
tp2734
a(I28
I23
I0
tp2735
a(I40
I11
I6
tp2736
a(I40
I34
I6
tp2737
a(I22
I18
I5
tp2738
a(I22
I18
I4
tp2739
a(I30
I25
I3
tp2740
a(I22
I45
I0
tp2741
a(I43
I48
I3
tp2742
a(I19
I11
I5
tp2743
a(I19
I34
I5
tp2744
a(I13
I18
I5
tp2745
a(I19
I34
I4
tp2746
a(I19
I11
I4
tp2747
a(I26
I24
I6
tp2748
a(I13
I18
I4
tp2749
a(I8
I29
I1
tp2750
a(I30
I45
I5
tp2751
a(I23
I38
I2
tp2752
a(I30
I45
I4
tp2753
a(I13
I45
I0
tp2754
a(I33
I26
I5
tp2755
a(I14
I26
I5
tp2756
a(I15
I26
I5
tp2757
a(I50
I38
I3
tp2758
a(I15
I26
I4
tp2759
a(I14
I26
I4
tp2760
a(I33
I26
I4
tp2761
a(I40
I11
I3
tp2762
a(I22
I18
I2
tp2763
a(I30
I25
I1
tp2764
a(I22
I16
I6
tp2765
a(I43
I48
I1
tp2766
a(I19
I11
I2
tp2767
a(I19
I34
I2
tp2768
a(I13
I18
I2
tp2769
a(I12
I18
I5
tp2770
a(I26
I24
I3
tp2771
a(I12
I18
I4
tp2772
a(I30
I45
I2
tp2773
a(I13
I16
I6
tp2774
a(I12
I45
I0
tp2775
a(I15
I26
I2
tp2776
a(I14
I26
I2
tp2777
a(I33
I26
I2
tp2778
a(I30
I17
I0
tp2779
a(I22
I16
I3
tp2780
a(I10
I32
I5
tp2781
a(I37
I29
I5
tp2782
a(I10
I32
I4
tp2783
a(I3
I31
I0
tp2784
a(I37
I29
I4
tp2785
a(I26
I41
I5
tp2786
a(I43
I9
I6
tp2787
a(I26
I41
I4
tp2788
a(I12
I18
I2
tp2789
a(I26
I24
I1
tp2790
a(I13
I16
I3
tp2791
a(I12
I16
I6
tp2792
a(I4
I14
I0
tp2793
a(I4
I15
I0
tp2794
a(I22
I16
I1
tp2795
a(I37
I29
I2
tp2796
a(I43
I9
I3
tp2797
a(I23
I38
I0
tp2798
a(I22
I18
I0
tp2799
a(I21
I29
I6
tp2800
a(I35
I3
I6
tp2801
a(I26
I41
I2
tp2802
a(I13
I16
I1
tp2803
a(I19
I34
I0
tp2804
a(I19
I11
I0
tp2805
a(I39
I35
I6
tp2806
a(I10
I36
I6
tp2807
a(I12
I16
I3
tp2808
a(I13
I18
I0
tp2809
a(I30
I18
I5
tp2810
a(I44
I42
I6
tp2811
a(I30
I45
I0
tp2812
a(I30
I18
I4
tp2813
a(I15
I26
I0
tp2814
a(I33
I26
I0
tp2815
a(I14
I26
I0
tp2816
a(I21
I29
I3
tp2817
a(I28
I24
I5
tp2818
a(I49
I42
I5
tp2819
a(I28
I24
I4
tp2820
a(I39
I35
I3
tp2821
a(I49
I42
I4
tp2822
a(I12
I16
I1
tp2823
a(I12
I18
I0
tp2824
a(I30
I18
I2
tp2825
a(I44
I42
I3
tp2826
a(I10
I32
I0
tp2827
a(I30
I16
I6
tp2828
a(I21
I29
I1
tp2829
a(I28
I41
I6
tp2830
a(I49
I42
I2
tp2831
a(I28
I24
I2
tp2832
a(I37
I29
I0
tp2833
a(I4
I44
I6
tp2834
a(I26
I41
I0
tp2835
a(I4
I49
I5
tp2836
a(I4
I49
I4
tp2837
a(I30
I16
I3
tp2838
a(I28
I41
I3
tp2839
a(I16
I20
I5
tp2840
a(I16
I20
I4
tp2841
a(I30
I16
I1
tp2842
a(I30
I18
I0
tp2843
a(I29
I28
I5
tp2844
a(I29
I28
I4
tp2845
a(I44
I27
I6
tp2846
a(I49
I42
I0
tp2847
a(I16
I20
I2
tp2848
a(I28
I24
I0
tp2849
a(I49
I27
I5
tp2850
a(I49
I27
I4
tp2851
a(I18
I20
I6
tp2852
a(I29
I28
I2
tp2853
a(I44
I27
I3
tp2854
a(I49
I17
I6
tp2855
a(I49
I27
I2
tp2856
a(I18
I20
I3
tp2857
a(I44
I17
I5
tp2858
a(I8
I33
I5
tp2859
a(I8
I15
I5
tp2860
a(I8
I14
I5
tp2861
a(I4
I49
I0
tp2862
a(I8
I15
I4
tp2863
a(I8
I33
I4
tp2864
a(I8
I14
I4
tp2865
a(I44
I17
I4
tp2866
a(I44
I27
I1
tp2867
a(I49
I17
I3
tp2868
a(I44
I25
I6
tp2869
a(I18
I20
I1
tp2870
a(I16
I20
I0
tp2871
a(I8
I14
I2
tp2872
a(I8
I15
I2
tp2873
a(I44
I17
I2
tp2874
a(I49
I25
I5
tp2875
a(I49
I25
I4
tp2876
a(I49
I17
I1
tp2877
a(I7
I31
I6
tp2878
a(I35
I10
I6
tp2879
a(I29
I28
I0
tp2880
a(I29
I26
I6
tp2881
a(I44
I25
I3
tp2882
a(I6
I35
I5
tp2883
a(I6
I35
I4
tp2884
a(I49
I27
I0
tp2885
a(I49
I45
I6
tp2886
a(I49
I25
I2
tp2887
a(I7
I31
I3
tp2888
a(I35
I10
I3
tp2889
a(I14
I42
I5
tp2890
a(I15
I42
I5
tp2891
a(I33
I42
I5
tp2892
a(I33
I42
I4
tp2893
a(I15
I42
I4
tp2894
a(I14
I42
I4
tp2895
a(I29
I26
I3
tp2896
a(I44
I45
I5
tp2897
a(I19
I21
I6
tp2898
a(I44
I45
I4
tp2899
a(I44
I25
I1
tp2900
a(I45
I20
I6
tp2901
a(I40
I21
I5
tp2902
a(I49
I45
I3
tp2903
a(I40
I21
I4
tp2904
a(I8
I15
I0
tp2905
a(I8
I14
I0
tp2906
a(I8
I33
I0
tp2907
a(I37
I33
I6
tp2908
a(I37
I14
I6
tp2909
a(I37
I15
I6
tp2910
a(I44
I17
I0
tp2911
a(I15
I42
I2
tp2912
a(I14
I42
I2
tp2913
a(I29
I26
I1
tp2914
a(I44
I45
I2
tp2915
a(I19
I21
I3
tp2916
a(I45
I20
I3
tp2917
a(I49
I45
I1
tp2918
a(I40
I21
I2
tp2919
a(I37
I15
I3
tp2920
a(I37
I14
I3
tp2921
a(I19
I21
I1
tp2922
a(I25
I20
I5
tp2923
a(I49
I25
I0
tp2924
a(I40
I37
I6
tp2925
a(I25
I20
I4
tp2926
a(I45
I20
I1
tp2927
a(I6
I35
I0
tp2928
a(I19
I37
I5
tp2929
a(I19
I37
I4
tp2930
a(I38
I46
I5
tp2931
a(I17
I20
I6
tp2932
a(I38
I46
I4
tp2933
a(I25
I20
I2
tp2934
a(I15
I42
I0
tp2935
a(I33
I42
I0
tp2936
a(I14
I42
I0
tp2937
a(I21
I33
I5
tp2938
a(I21
I14
I5
tp2939
a(I21
I15
I5
tp2940
a(I21
I15
I4
tp2941
a(I21
I14
I4
tp2942
a(I21
I33
I4
tp2943
a(I44
I45
I0
tp2944
a(I19
I37
I2
tp2945
a(I20
I50
I5
tp2946
a(I40
I21
I0
tp2947
a(I20
I50
I4
tp2948
a(I49
I18
I6
tp2949
a(I14
I27
I5
tp2950
a(I15
I27
I5
tp2951
a(I33
I27
I5
tp2952
a(I17
I20
I3
tp2953
a(I14
I27
I4
tp2954
a(I33
I27
I4
tp2955
a(I15
I27
I4
tp2956
a(I20
I23
I6
tp2957
a(I21
I14
I2
tp2958
a(I21
I15
I2
tp2959
a(I21
I33
I2
tp2960
a(I44
I18
I5
tp2961
a(I44
I18
I4
tp2962
a(I20
I50
I2
tp2963
a(I49
I18
I3
tp2964
a(I11
I29
I5
tp2965
a(I34
I29
I5
tp2966
a(I27
I20
I5
tp2967
a(I17
I20
I1
tp2968
a(I34
I29
I4
tp2969
a(I14
I27
I2
tp2970
a(I33
I27
I2
tp2971
a(I15
I27
I2
tp2972
a(I11
I29
I4
tp2973
a(I14
I17
I6
tp2974
a(I33
I17
I6
tp2975
a(I15
I17
I6
tp2976
a(I27
I20
I4
tp2977
a(I8
I44
I6
tp2978
a(I20
I23
I3
tp2979
a(I44
I18
I2
tp2980
a(I8
I49
I5
tp2981
a(I25
I20
I0
tp2982
a(I8
I49
I4
tp2983
a(I49
I18
I1
tp2984
a(I19
I37
I0
tp2985
a(I34
I29
I2
tp2986
a(I11
I29
I2
tp2987
a(I27
I20
I2
tp2988
a(I8
I44
I3
tp2989
a(I44
I16
I6
tp2990
a(I14
I17
I3
tp2991
a(I15
I17
I3
tp2992
a(I33
I17
I3
tp2993
a(I20
I23
I1
tp2994
a(I19
I8
I6
tp2995
a(I21
I14
I0
tp2996
a(I21
I15
I0
tp2997
a(I21
I33
I0
tp2998
a(I8
I49
I2
tp2999
a(I49
I16
I5
tp3000
a(I4
I30
I6
tp3001
a(I49
I16
I4
tp3002
a(I38
I46
I0
tp3003
a(I40
I8
I5
tp3004
a(I40
I8
I4
tp3005
a(I14
I17
I1
tp3006
a(I15
I17
I1
tp3007
a(I33
I17
I1
tp3008
a(I44
I16
I3
tp3009
a(I33
I25
I5
tp3010
a(I15
I25
I5
tp3011
a(I14
I25
I5
tp3012
a(I15
I25
I4
tp3013
a(I14
I25
I4
tp3014
a(I33
I25
I4
tp3015
a(I19
I8
I3
tp3016
a(I20
I50
I0
tp3017
a(I33
I27
I0
tp3018
a(I14
I27
I0
tp3019
a(I15
I27
I0
tp3020
a(I49
I16
I2
tp3021
a(I44
I18
I0
tp3022
a(I44
I16
I1
tp3023
a(I33
I25
I2
tp3024
a(I14
I25
I2
tp3025
a(I15
I25
I2
tp3026
a(I19
I8
I1
tp3027
a(I14
I45
I6
tp3028
a(I33
I45
I6
tp3029
a(I15
I45
I6
tp3030
a(I34
I29
I0
tp3031
a(I11
I29
I0
tp3032
a(I27
I20
I0
tp3033
a(I8
I49
I0
tp3034
a(I15
I45
I3
tp3035
a(I33
I45
I3
tp3036
a(I14
I45
I3
tp3037
a(I36
I48
I6
tp3038
a(I37
I49
I6
tp3039
a(I42
I20
I5
tp3040
a(I42
I20
I4
tp3041
a(I49
I16
I0
tp3042
a(I40
I8
I0
tp3043
a(I37
I44
I5
tp3044
a(I4
I12
I6
tp3045
a(I14
I45
I1
tp3046
a(I15
I45
I1
tp3047
a(I37
I44
I4
tp3048
a(I36
I48
I3
tp3049
a(I14
I25
I0
tp3050
a(I33
I25
I0
tp3051
a(I15
I25
I0
tp3052
a(I37
I49
I3
tp3053
a(I42
I20
I2
tp3054
a(I4
I13
I6
tp3055
a(I22
I29
I5
tp3056
a(I22
I29
I4
tp3057
a(I21
I44
I6
tp3058
a(I7
I32
I6
tp3059
a(I21
I49
I5
tp3060
a(I43
I31
I6
tp3061
a(I4
I22
I6
tp3062
a(I21
I49
I4
tp3063
a(I13
I29
I5
tp3064
a(I13
I29
I4
tp3065
a(I22
I29
I2
tp3066
a(I32
I48
I5
tp3067
a(I29
I42
I6
tp3068
a(I32
I48
I4
tp3069
a(I21
I44
I3
tp3070
a(I42
I20
I0
tp3071
a(I15
I18
I6
tp3072
a(I33
I18
I6
tp3073
a(I14
I18
I6
tp3074
a(I37
I44
I0
tp3075
a(I43
I31
I3
tp3076
a(I21
I49
I2
tp3077
a(I4
I22
I3
tp3078
a(I13
I29
I2
tp3079
a(I32
I48
I2
tp3080
a(I21
I44
I1
tp3081
a(I29
I42
I3
tp3082
a(I43
I31
I1
tp3083
a(I36
I9
I6
tp3084
a(I33
I18
I3
tp3085
a(I14
I18
I3
tp3086
a(I15
I18
I3
tp3087
a(I12
I29
I5
tp3088
a(I12
I29
I4
tp3089
a(I29
I42
I1
tp3090
a(I33
I18
I1
tp3091
a(I15
I18
I1
tp3092
a(I14
I18
I1
tp3093
a(I22
I29
I0
tp3094
a(I12
I29
I2
tp3095
a(I21
I49
I0
tp3096
a(I32
I48
I0
tp3097
a(I13
I29
I0
tp3098
a(I10
I43
I6
tp3099
a(I15
I16
I5
tp3100
a(I14
I16
I5
tp3101
a(I33
I16
I5
tp3102
a(I14
I16
I4
tp3103
a(I33
I16
I4
tp3104
a(I15
I16
I4
tp3105
a(I20
I24
I6
tp3106
a(I10
I43
I3
tp3107
a(I14
I16
I2
tp3108
a(I33
I16
I2
tp3109
a(I15
I16
I2
tp3110
a(I12
I29
I0
tp3111
a(I32
I9
I5
tp3112
a(I32
I9
I4
tp3113
a(I20
I24
I3
tp3114
a(I30
I29
I5
tp3115
a(I29
I27
I6
tp3116
a(I30
I29
I4
tp3117
a(I20
I24
I1
tp3118
a(I30
I29
I2
tp3119
a(I29
I27
I3
tp3120
a(I15
I16
I0
tp3121
a(I14
I16
I0
tp3122
a(I33
I16
I0
tp3123
a(I11
I33
I6
tp3124
a(I34
I14
I6
tp3125
a(I34
I33
I6
tp3126
a(I11
I14
I6
tp3127
a(I11
I15
I6
tp3128
a(I34
I15
I6
tp3129
a(I20
I41
I5
tp3130
a(I20
I41
I4
tp3131
a(I51
I35
I5
tp3132
a(I51
I35
I4
tp3133
a(I29
I27
I1
tp3134
a(I4
I11
I6
tp3135
a(I32
I9
I0
tp3136
a(I34
I15
I3
tp3137
a(I11
I14
I3
tp3138
a(I11
I33
I3
tp3139
a(I11
I15
I3
tp3140
a(I34
I14
I3
tp3141
a(I51
I35
I2
tp3142
a(I20
I41
I2
tp3143
a(I16
I28
I6
tp3144
a(I29
I17
I5
tp3145
a(I29
I17
I4
tp3146
a(I19
I4
I6
tp3147
a(I11
I14
I1
tp3148
a(I11
I15
I1
tp3149
a(I30
I29
I0
tp3150
a(I8
I30
I6
tp3151
a(I16
I28
I3
tp3152
a(I29
I17
I2
tp3153
a(I19
I4
I3
tp3154
a(I29
I25
I6
tp3155
a(I51
I35
I0
tp3156
a(I8
I30
I3
tp3157
a(I16
I28
I1
tp3158
a(I20
I41
I0
tp3159
a(I29
I25
I3
tp3160
a(I29
I17
I0
tp3161
a(I29
I25
I1
tp3162
a(I18
I28
I5
tp3163
a(I18
I28
I4
tp3164
a(I29
I45
I5
tp3165
a(I29
I45
I4
tp3166
a(I18
I28
I2
tp3167
a(I29
I45
I2
tp3168
a(I8
I12
I6
tp3169
a(I26
I20
I5
tp3170
a(I26
I20
I4
tp3171
a(I8
I12
I3
tp3172
a(I18
I28
I0
tp3173
a(I16
I26
I5
tp3174
a(I16
I26
I4
tp3175
a(I26
I20
I2
tp3176
a(I29
I45
I0
tp3177
a(I37
I30
I5
tp3178
a(I37
I30
I4
tp3179
a(I8
I13
I6
tp3180
a(I3
I43
I6
tp3181
a(I16
I26
I2
tp3182
a(I22
I14
I6
tp3183
a(I22
I15
I6
tp3184
a(I22
I33
I6
tp3185
a(I8
I13
I3
tp3186
a(I8
I22
I6
tp3187
a(I39
I51
I6
tp3188
a(I22
I15
I3
tp3189
a(I22
I33
I3
tp3190
a(I22
I14
I3
tp3191
a(I43
I32
I6
tp3192
a(I13
I33
I6
tp3193
a(I13
I14
I6
tp3194
a(I13
I15
I6
tp3195
a(I26
I20
I0
tp3196
a(I31
I48
I5
tp3197
a(I31
I48
I4
tp3198
a(I8
I22
I3
tp3199
a(I39
I51
I3
tp3200
a(I22
I15
I1
tp3201
a(I22
I33
I1
tp3202
a(I22
I14
I1
tp3203
a(I43
I32
I3
tp3204
a(I18
I26
I6
tp3205
a(I16
I26
I0
tp3206
a(I13
I14
I3
tp3207
a(I13
I33
I3
tp3208
a(I13
I15
I3
tp3209
a(I45
I28
I5
tp3210
a(I21
I30
I6
tp3211
a(I45
I28
I4
tp3212
a(I31
I48
I2
tp3213
a(I39
I51
I1
tp3214
a(I37
I30
I0
tp3215
a(I8
I22
I1
tp3216
a(I18
I26
I3
tp3217
a(I13
I14
I1
tp3218
a(I13
I15
I1
tp3219
a(I29
I18
I5
tp3220
a(I29
I18
I4
tp3221
a(I45
I28
I2
tp3222
a(I21
I30
I3
tp3223
a(I12
I33
I6
tp3224
a(I12
I15
I6
tp3225
a(I12
I14
I6
tp3226
a(I18
I26
I1
tp3227
a(I11
I49
I6
tp3228
a(I34
I49
I6
tp3229
a(I29
I18
I2
tp3230
a(I21
I30
I1
tp3231
a(I11
I44
I5
tp3232
a(I34
I44
I5
tp3233
a(I34
I44
I4
tp3234
a(I11
I44
I4
tp3235
a(I31
I48
I0
tp3236
a(I25
I28
I6
tp3237
a(I12
I33
I3
tp3238
a(I12
I15
I3
tp3239
a(I12
I14
I3
tp3240
a(I37
I12
I5
tp3241
a(I11
I49
I3
tp3242
a(I37
I12
I4
tp3243
a(I34
I49
I3
tp3244
a(I28
I20
I6
tp3245
a(I11
I44
I2
tp3246
a(I25
I28
I3
tp3247
a(I12
I15
I1
tp3248
a(I12
I14
I1
tp3249
a(I45
I28
I0
tp3250
a(I11
I49
I1
tp3251
a(I43
I36
I5
tp3252
a(I43
I36
I4
tp3253
a(I28
I20
I3
tp3254
a(I25
I28
I1
tp3255
a(I29
I18
I0
tp3256
a(I29
I16
I6
tp3257
a(I28
I20
I1
tp3258
a(I10
I7
I6
tp3259
a(I37
I13
I5
tp3260
a(I37
I13
I4
tp3261
a(I34
I44
I0
tp3262
a(I11
I44
I0
tp3263
a(I29
I16
I3
tp3264
a(I17
I28
I5
tp3265
a(I17
I28
I4
tp3266
a(I37
I12
I0
tp3267
a(I21
I12
I6
tp3268
a(I29
I16
I1
tp3269
a(I17
I28
I2
tp3270
a(I31
I9
I5
tp3271
a(I31
I9
I4
tp3272
a(I37
I22
I5
tp3273
a(I37
I22
I4
tp3274
a(I43
I36
I0
tp3275
a(I21
I12
I3
tp3276
a(I31
I9
I2
tp3277
a(I37
I22
I2
tp3278
a(I30
I15
I6
tp3279
a(I30
I33
I6
tp3280
a(I30
I14
I6
tp3281
a(I21
I12
I1
tp3282
a(I27
I28
I6
tp3283
a(I45
I26
I6
tp3284
a(I37
I13
I0
tp3285
a(I30
I33
I3
tp3286
a(I30
I15
I3
tp3287
a(I30
I14
I3
tp3288
a(I17
I28
I0
tp3289
a(I27
I28
I3
tp3290
a(I21
I13
I6
tp3291
a(I45
I26
I3
tp3292
a(I30
I15
I1
tp3293
a(I30
I14
I1
tp3294
a(I31
I9
I0
tp3295
a(I49
I29
I6
tp3296
a(I37
I22
I0
tp3297
a(I27
I28
I1
tp3298
a(I44
I29
I5
tp3299
a(I21
I13
I3
tp3300
a(I44
I29
I4
tp3301
a(I45
I26
I1
tp3302
a(I49
I29
I3
tp3303
a(I21
I22
I6
tp3304
a(I8
I34
I6
tp3305
a(I8
I11
I6
tp3306
a(I21
I13
I1
tp3307
a(I44
I29
I2
tp3308
a(I49
I29
I1
tp3309
a(I21
I22
I3
tp3310
a(I8
I11
I3
tp3311
a(I25
I26
I5
tp3312
a(I25
I26
I4
tp3313
a(I21
I22
I1
tp3314
a(I25
I26
I2
tp3315
a(I44
I29
I0
tp3316
a(I17
I26
I6
tp3317
a(I22
I49
I6
tp3318
a(I25
I26
I0
tp3319
a(I22
I44
I5
tp3320
a(I22
I44
I4
tp3321
a(I17
I26
I3
tp3322
a(I22
I49
I3
tp3323
a(I22
I44
I2
tp3324
a(I4
I21
I5
tp3325
a(I4
I21
I4
tp3326
a(I17
I26
I1
tp3327
a(I13
I49
I6
tp3328
a(I22
I49
I1
tp3329
a(I6
I51
I5
tp3330
a(I6
I51
I4
tp3331
a(I13
I44
I5
tp3332
a(I13
I44
I4
tp3333
a(I4
I21
I2
tp3334
a(I6
I51
I2
tp3335
a(I13
I49
I3
tp3336
a(I13
I44
I2
tp3337
a(I42
I28
I6
tp3338
a(I13
I49
I1
tp3339
a(I22
I44
I0
tp3340
a(I27
I26
I5
tp3341
a(I27
I26
I4
tp3342
a(I42
I28
I3
tp3343
a(I6
I51
I0
tp3344
a(I4
I21
I0
tp3345
a(I27
I26
I2
tp3346
a(I13
I44
I0
tp3347
a(I12
I49
I6
tp3348
a(I12
I44
I5
tp3349
a(I12
I44
I4
tp3350
a(I12
I49
I3
tp3351
a(I37
I11
I5
tp3352
a(I37
I11
I4
tp3353
a(I12
I44
I2
tp3354
a(I12
I49
I1
tp3355
a(I27
I26
I0
tp3356
a(I12
I44
I0
tp3357
a(I37
I11
I0
tp3358
a(I16
I42
I5
tp3359
a(I36
I31
I6
tp3360
a(I16
I42
I4
tp3361
a(I36
I31
I3
tp3362
a(I16
I42
I2
tp3363
a(I21
I11
I6
tp3364
a(I21
I34
I6
tp3365
a(I21
I34
I3
tp3366
a(I21
I11
I3
tp3367
a(I16
I42
I0
tp3368
a(I21
I11
I1
tp3369
a(I21
I34
I1
tp3370
a(I30
I49
I6
tp3371
a(I41
I50
I5
tp3372
a(I41
I50
I4
tp3373
a(I30
I44
I5
tp3374
a(I30
I44
I4
tp3375
a(I30
I49
I3
tp3376
a(I41
I50
I2
tp3377
a(I30
I44
I2
tp3378
a(I30
I49
I1
tp3379
a(I18
I42
I6
tp3380
a(I42
I26
I5
tp3381
a(I42
I26
I4
tp3382
a(I41
I23
I6
tp3383
a(I7
I43
I5
tp3384
a(I18
I42
I3
tp3385
a(I15
I29
I6
tp3386
a(I33
I29
I6
tp3387
a(I14
I29
I6
tp3388
a(I7
I43
I4
tp3389
a(I42
I26
I2
tp3390
a(I30
I44
I0
tp3391
a(I41
I50
I0
tp3392
a(I41
I23
I3
tp3393
a(I18
I42
I1
tp3394
a(I33
I29
I3
tp3395
a(I14
I29
I3
tp3396
a(I15
I29
I3
tp3397
a(I32
I31
I5
tp3398
a(I32
I31
I4
tp3399
a(I41
I23
I1
tp3400
a(I15
I29
I1
tp3401
a(I14
I29
I1
tp3402
a(I33
I29
I1
tp3403
a(I32
I31
I2
tp3404
a(I42
I26
I0
tp3405
a(I7
I43
I0
tp3406
a(I24
I50
I6
tp3407
a(I32
I31
I0
tp3408
a(I24
I50
I3
tp3409
a(I24
I50
I1
tp3410
a(I11
I30
I5
tp3411
a(I34
I30
I5
tp3412
a(I11
I30
I4
tp3413
a(I34
I30
I4
tp3414
a(I11
I30
I2
tp3415
a(I24
I23
I5
tp3416
a(I24
I23
I4
tp3417
a(I16
I27
I5
tp3418
a(I16
I27
I4
tp3419
a(I24
I23
I2
tp3420
a(I34
I30
I0
tp3421
a(I11
I30
I0
tp3422
a(I16
I27
I2
tp3423
a(I24
I23
I0
tp3424
a(I16
I27
I0
tp3425
a(I16
I17
I6
tp3426
a(I16
I17
I3
tp3427
a(I16
I17
I1
tp3428
a(I45
I42
I6
tp3429
a(I18
I27
I6
tp3430
a(I45
I42
I3
tp3431
a(I18
I27
I3
tp3432
a(I39
I6
I6
tp3433
a(I44
I15
I6
tp3434
a(I44
I14
I6
tp3435
a(I44
I33
I6
tp3436
a(I49
I14
I5
tp3437
a(I49
I33
I5
tp3438
a(I49
I15
I5
tp3439
a(I49
I14
I4
tp3440
a(I49
I15
I4
tp3441
a(I49
I33
I4
tp3442
a(I18
I27
I1
tp3443
a(I44
I15
I3
tp3444
a(I44
I33
I3
tp3445
a(I44
I14
I3
tp3446
a(I34
I12
I5
tp3447
a(I11
I12
I5
tp3448
a(I34
I12
I4
tp3449
a(I11
I12
I4
tp3450
a(I49
I14
I2
tp3451
a(I49
I15
I2
tp3452
a(I49
I33
I2
tp3453
a(I44
I15
I1
tp3454
a(I44
I14
I1
tp3455
a(I11
I12
I2
tp3456
a(I16
I25
I5
tp3457
a(I16
I25
I4
tp3458
a(I49
I14
I0
tp3459
a(I49
I15
I0
tp3460
a(I49
I33
I0
tp3461
a(I16
I25
I2
tp3462
a(I34
I12
I0
tp3463
a(I11
I12
I0
tp3464
a(I16
I25
I0
tp3465
a(I25
I42
I5
tp3466
a(I25
I42
I4
tp3467
a(I18
I17
I5
tp3468
a(I18
I17
I4
tp3469
a(I25
I42
I2
tp3470
a(I18
I17
I2
tp3471
a(I34
I13
I5
tp3472
a(I11
I13
I5
tp3473
a(I34
I13
I4
tp3474
a(I11
I13
I4
tp3475
a(I11
I13
I2
tp3476
a(I25
I42
I0
tp3477
a(I18
I17
I0
tp3478
a(I16
I45
I6
tp3479
a(I11
I13
I0
tp3480
a(I34
I13
I0
tp3481
a(I16
I45
I3
tp3482
a(I16
I45
I1
tp3483
a(I34
I22
I5
tp3484
a(I11
I22
I5
tp3485
a(I34
I22
I4
tp3486
a(I11
I22
I4
tp3487
a(I8
I21
I5
tp3488
a(I8
I21
I4
tp3489
a(I34
I22
I2
tp3490
a(I11
I22
I2
tp3491
a(I8
I21
I2
tp3492
a(I17
I42
I6
tp3493
a(I18
I25
I6
tp3494
a(I34
I22
I0
tp3495
a(I11
I22
I0
tp3496
a(I8
I21
I0
tp3497
a(I17
I42
I3
tp3498
a(I18
I25
I3
tp3499
a(I17
I42
I1
tp3500
a(I18
I25
I1
tp3501
a(I22
I30
I5
tp3502
a(I22
I30
I4
tp3503
a(I22
I30
I2
tp3504
a(I22
I30
I0
tp3505
a(I13
I30
I5
tp3506
a(I13
I30
I4
tp3507
a(I26
I28
I6
tp3508
a(I13
I30
I2
tp3509
a(I45
I27
I6
tp3510
a(I27
I42
I5
tp3511
a(I26
I28
I3
tp3512
a(I27
I42
I4
tp3513
a(I18
I45
I5
tp3514
a(I18
I45
I4
tp3515
a(I45
I27
I3
tp3516
a(I26
I28
I1
tp3517
a(I27
I42
I2
tp3518
a(I18
I45
I2
tp3519
a(I13
I30
I0
tp3520
a(I45
I27
I1
tp3521
a(I8
I37
I6
tp3522
a(I27
I42
I0
tp3523
a(I18
I45
I0
tp3524
a(I9
I48
I5
tp3525
a(I9
I48
I4
tp3526
a(I9
I48
I2
tp3527
a(I9
I48
I0
tp3528
a(I12
I30
I5
tp3529
a(I12
I30
I4
tp3530
a(I12
I30
I2
tp3531
a(I12
I30
I0
tp3532
a(I25
I27
I5
tp3533
a(I45
I17
I5
tp3534
a(I25
I27
I4
tp3535
a(I45
I17
I4
tp3536
a(I25
I27
I2
tp3537
a(I45
I17
I2
tp3538
a(I25
I27
I0
tp3539
a(I45
I17
I0
tp3540
a(I36
I32
I6
tp3541
a(I16
I18
I6
tp3542
a(I16
I18
I3
tp3543
a(I16
I18
I1
tp3544
a(I22
I12
I5
tp3545
a(I22
I12
I4
tp3546
a(I37
I21
I6
tp3547
a(I22
I12
I2
tp3548
a(I37
I21
I3
tp3549
a(I37
I21
I1
tp3550
a(I22
I12
I0
tp3551
a(I41
I24
I6
tp3552
a(I41
I24
I3
tp3553
a(I41
I24
I1
tp3554
a(I17
I27
I6
tp3555
a(I25
I17
I6
tp3556
a(I45
I25
I6
tp3557
a(I17
I27
I3
tp3558
a(I25
I17
I3
tp3559
a(I45
I25
I3
tp3560
a(I17
I27
I1
tp3561
a(I25
I17
I1
tp3562
a(I45
I25
I1
tp3563
a(I13
I12
I5
tp3564
a(I13
I12
I4
tp3565
a(I13
I12
I2
tp3566
a(I13
I12
I0
tp3567
a(I23
I50
I6
tp3568
a(I23
I50
I3
tp3569
a(I23
I50
I1
tp3570
a(I22
I13
I5
tp3571
a(I22
I13
I4
tp3572
a(I22
I13
I2
tp3573
a(I22
I13
I0
tp3574
a(I28
I28
I0
tp3575
a(I17
I17
I4
tp3576
a(I16
I16
I4
tp3577
a(I41
I41
I4
tp3578
a(I46
I46
I2
tp3579
a(I49
I49
I4
tp3580
a(I9
I9
I5
tp3581
a(I40
I40
I5
tp3582
a(I8
I8
I0
tp3583
a(I44
I44
I4
tp3584
a(I24
I24
I5
tp3585
a(I48
I48
I0
tp3586
a(I28
I28
I5
tp3587
a(I48
I48
I2
tp3588
a(I19
I19
I5
tp3589
a(I19
I19
I2
tp3590
a(I9
I9
I0
tp3591
a(I40
I40
I0
tp3592
a(I24
I24
I0
tp3593
a(I18
I18
I4
tp3594
a(I28
I28
I2
tp3595
a(I21
I21
I4
tp3596
a(I19
I19
I0
tp3597
a(I48
I48
I5
tp3598
a(I46
I46
I0
tp3599
a(I8
I8
I5
tp3600
a(I50
I50
I2
tp3601
a(I18
I18
I5
tp3602
a(I22
I22
I0
tp3603
a(I39
I39
I5
tp3604
a(I23
I23
I5
tp3605
a(I25
I25
I2
tp3606
a(I45
I45
I2
tp3607
a(I23
I23
I2
tp3608
a(I42
I42
I4
tp3609
a(I17
I17
I2
tp3610
a(I33
I33
I4
tp3611
a(I19
I40
I1
tp3612
a(I33
I33
I5
tp3613
a(I31
I31
I2
tp3614
a(I42
I42
I0
tp3615
a(I46
I46
I4
tp3616
a(I49
I49
I2
tp3617
a(I34
I11
I5
tp3618
a(I12
I12
I4
tp3619
a(I14
I14
I5
tp3620
a(I15
I33
I0
tp3621
a(I33
I33
I0
tp3622
a(I44
I49
I6
tp3623
a(I47
I47
I5
tp3624
a(I22
I22
I4
tp3625
a(I14
I15
I5
tp3626
a(I51
I51
I2
tp3627
a(I25
I25
I4
tp3628
a(I11
I11
I0
tp3629
a(I33
I14
I5
tp3630
a(I15
I15
I0
tp3631
a(I21
I21
I5
tp3632
a(I30
I30
I5
tp3633
a(I49
I44
I1
tp3634
a(I19
I40
I3
tp3635
a(I15
I14
I5
tp3636
a(I44
I44
I0
tp3637
a(I11
I11
I4
tp3638
a(I12
I12
I2
tp3639
a(I15
I33
I4
tp3640
a(I26
I26
I0
tp3641
a(I35
I35
I0
tp3642
a(I32
I32
I4
tp3643
a(I22
I22
I2
tp3644
a(I15
I15
I2
tp3645
a(I45
I45
I0
tp3646
a(I33
I14
I2
tp3647
a(I44
I44
I2
tp3648
a(I35
I35
I4
tp3649
a(I32
I32
I0
tp3650
a(I14
I33
I5
tp3651
a(I27
I27
I5
tp3652
a(I11
I34
I5
tp3653
a(I33
I15
I5
tp3654
a(I10
I10
I0
tp3655
a(I10
I10
I4
tp3656
a(I15
I15
I4
tp3657
a(I23
I23
I0
tp3658
a(I43
I43
I4
tp3659
a(I14
I15
I0
tp3660
a(I33
I14
I4
tp3661
a(I26
I26
I2
tp3662
a(I23
I23
I4
tp3663
a(I33
I33
I2
tp3664
a(I13
I13
I0
tp3665
a(I24
I24
I2
tp3666
a(I46
I46
I5
tp3667
a(I17
I17
I5
tp3668
a(I33
I15
I2
tp3669
a(I20
I20
I5
tp3670
a(I14
I14
I0
tp3671
a(I16
I16
I5
tp3672
a(I51
I51
I0
tp3673
a(I48
I48
I4
tp3674
a(I29
I29
I0
tp3675
a(I31
I31
I4
tp3676
a(I16
I16
I0
tp3677
a(I50
I50
I4
tp3678
a(I14
I33
I0
tp3679
a(I43
I43
I2
tp3680
a(I47
I47
I0
tp3681
a(I43
I43
I0
tp3682
a(I22
I22
I5
tp3683
a(I25
I25
I5
tp3684
a(I41
I41
I5
tp3685
a(I33
I14
I0
tp3686
a(I21
I21
I0
tp3687
a(I35
I35
I5
tp3688
a(I19
I19
I4
tp3689
a(I50
I50
I0
tp3690
a(I19
I40
I6
tp3691
a(I15
I14
I0
tp3692
a(I13
I13
I4
tp3693
a(I51
I51
I5
tp3694
a(I49
I44
I6
tp3695
a(I49
I49
I5
tp3696
a(I33
I15
I4
tp3697
a(I49
I44
I3
tp3698
a(I40
I40
I4
tp3699
a(I12
I12
I0
tp3700
a(I20
I20
I4
tp3701
a(I26
I26
I4
tp3702
a(I29
I29
I4
tp3703
a(I18
I18
I0
tp3704
a(I15
I33
I2
tp3705
a(I11
I11
I2
tp3706
a(I50
I50
I5
tp3707
a(I44
I44
I5
tp3708
a(I13
I13
I2
tp3709
a(I27
I27
I0
tp3710
a(I33
I15
I0
tp3711
a(I34
I11
I0
tp3712
a(I51
I51
I4
tp3713
a(I14
I14
I2
tp3714
a(I8
I8
I4
tp3715
a(I29
I29
I2
tp3716
a(I42
I42
I5
tp3717
a(I39
I39
I4
tp3718
a(I20
I20
I0
tp3719
a(I15
I15
I5
tp3720
a(I43
I43
I5
tp3721
a(I28
I28
I4
tp3722
a(I45
I45
I5
tp3723
a(I21
I21
I2
tp3724
a(I32
I32
I5
tp3725
a(I30
I30
I0
tp3726
a(I15
I14
I2
tp3727
a(I40
I19
I1
tp3728
a(I31
I31
I0
tp3729
a(I17
I17
I0
tp3730
a(I34
I11
I4
tp3731
a(I14
I14
I4
tp3732
a(I16
I16
I2
tp3733
a(I24
I24
I4
tp3734
a(I18
I18
I2
tp3735
a(I47
I47
I4
tp3736
a(I31
I31
I5
tp3737
a(I40
I19
I3
tp3738
a(I25
I25
I0
tp3739
a(I41
I41
I0
tp3740
a(I30
I30
I4
tp3741
a(I39
I39
I0
tp3742
a(I15
I14
I4
tp3743
a(I15
I33
I5
tp3744
a(I27
I27
I2
tp3745
a(I11
I34
I0
tp3746
a(I13
I13
I5
tp3747
a(I11
I11
I5
tp3748
a(I12
I12
I5
tp3749
a(I49
I49
I0
tp3750
a(I14
I15
I2
tp3751
a(I10
I10
I5
tp3752
a(I26
I26
I5
tp3753
a(I29
I29
I5
tp3754
a(I20
I20
I2
tp3755
a(I45
I45
I4
tp3756
a(I35
I35
I2
tp3757
a(I14
I15
I4
tp3758
a(I30
I30
I2
tp3759
a(I9
I9
I4
tp3760
a(I44
I49
I3
tp3761
a(I27
I27
I4
tp3762
a(I11
I34
I4
tp3763
a(I14
I33
I4
tp3764
a(I40
I19
I6
tp3765
a(I14
I33
I2
tp3766
a(I44
I49
I1
tp3767
a(I13
I22
I0
tp3768
a(I13
I22
I2
tp3769
a(I13
I22
I4
tp3770
a(I13
I22
I5
tp3771
a(I50
I23
I1
tp3772
a(I50
I23
I3
tp3773
a(I50
I23
I6
tp3774
a(I12
I13
I0
tp3775
a(I12
I13
I2
tp3776
a(I12
I13
I4
tp3777
a(I12
I13
I5
tp3778
a(I25
I45
I1
tp3779
a(I17
I25
I1
tp3780
a(I27
I17
I1
tp3781
a(I25
I45
I3
tp3782
a(I17
I25
I3
tp3783
a(I27
I17
I3
tp3784
a(I25
I45
I6
tp3785
a(I17
I25
I6
tp3786
a(I27
I17
I6
tp3787
a(I24
I41
I1
tp3788
a(I24
I41
I3
tp3789
a(I24
I41
I6
tp3790
a(I12
I22
I0
tp3791
a(I21
I37
I1
tp3792
a(I21
I37
I3
tp3793
a(I12
I22
I2
tp3794
a(I21
I37
I6
tp3795
a(I12
I22
I4
tp3796
a(I12
I22
I5
tp3797
a(I18
I16
I1
tp3798
a(I18
I16
I3
tp3799
a(I18
I16
I6
tp3800
a(I32
I36
I6
tp3801
a(I17
I45
I0
tp3802
a(I27
I25
I0
tp3803
a(I17
I45
I2
tp3804
a(I27
I25
I2
tp3805
a(I17
I45
I4
tp3806
a(I27
I25
I4
tp3807
a(I17
I45
I5
tp3808
a(I27
I25
I5
tp3809
a(I30
I12
I0
tp3810
a(I30
I12
I2
tp3811
a(I30
I12
I4
tp3812
a(I30
I12
I5
tp3813
a(I48
I9
I0
tp3814
a(I48
I9
I2
tp3815
a(I48
I9
I4
tp3816
a(I48
I9
I5
tp3817
a(I45
I18
I0
tp3818
a(I42
I27
I0
tp3819
a(I37
I8
I6
tp3820
a(I27
I45
I1
tp3821
a(I30
I13
I0
tp3822
a(I45
I18
I2
tp3823
a(I42
I27
I2
tp3824
a(I28
I26
I1
tp3825
a(I27
I45
I3
tp3826
a(I45
I18
I4
tp3827
a(I45
I18
I5
tp3828
a(I42
I27
I4
tp3829
a(I28
I26
I3
tp3830
a(I42
I27
I5
tp3831
a(I27
I45
I6
tp3832
a(I30
I13
I2
tp3833
a(I28
I26
I6
tp3834
a(I30
I13
I4
tp3835
a(I30
I13
I5
tp3836
a(I30
I22
I0
tp3837
a(I30
I22
I2
tp3838
a(I30
I22
I4
tp3839
a(I30
I22
I5
tp3840
a(I25
I18
I1
tp3841
a(I42
I17
I1
tp3842
a(I25
I18
I3
tp3843
a(I42
I17
I3
tp3844
a(I21
I8
I0
tp3845
a(I22
I34
I0
tp3846
a(I22
I11
I0
tp3847
a(I25
I18
I6
tp3848
a(I42
I17
I6
tp3849
a(I21
I8
I2
tp3850
a(I22
I34
I2
tp3851
a(I22
I11
I2
tp3852
a(I21
I8
I4
tp3853
a(I21
I8
I5
tp3854
a(I22
I34
I4
tp3855
a(I22
I11
I4
tp3856
a(I22
I34
I5
tp3857
a(I22
I11
I5
tp3858
a(I45
I16
I1
tp3859
a(I45
I16
I3
tp3860
a(I13
I11
I0
tp3861
a(I13
I34
I0
tp3862
a(I45
I16
I6
tp3863
a(I17
I18
I0
tp3864
a(I42
I25
I0
tp3865
a(I13
I11
I2
tp3866
a(I13
I11
I4
tp3867
a(I13
I34
I4
tp3868
a(I13
I11
I5
tp3869
a(I13
I34
I5
tp3870
a(I17
I18
I2
tp3871
a(I42
I25
I2
tp3872
a(I17
I18
I4
tp3873
a(I17
I18
I5
tp3874
a(I42
I25
I4
tp3875
a(I42
I25
I5
tp3876
a(I25
I16
I0
tp3877
a(I12
I11
I0
tp3878
a(I12
I34
I0
tp3879
a(I25
I16
I2
tp3880
a(I33
I49
I0
tp3881
a(I15
I49
I0
tp3882
a(I14
I49
I0
tp3883
a(I25
I16
I4
tp3884
a(I25
I16
I5
tp3885
a(I12
I11
I2
tp3886
a(I15
I44
I1
tp3887
a(I14
I44
I1
tp3888
a(I33
I49
I2
tp3889
a(I14
I49
I2
tp3890
a(I15
I49
I2
tp3891
a(I12
I34
I4
tp3892
a(I12
I11
I4
tp3893
a(I12
I11
I5
tp3894
a(I12
I34
I5
tp3895
a(I15
I44
I3
tp3896
a(I33
I44
I3
tp3897
a(I14
I44
I3
tp3898
a(I27
I18
I1
tp3899
a(I14
I49
I4
tp3900
a(I33
I49
I4
tp3901
a(I15
I49
I4
tp3902
a(I14
I49
I5
tp3903
a(I33
I49
I5
tp3904
a(I15
I49
I5
tp3905
a(I33
I44
I6
tp3906
a(I15
I44
I6
tp3907
a(I14
I44
I6
tp3908
a(I6
I39
I6
tp3909
a(I27
I18
I3
tp3910
a(I42
I45
I3
tp3911
a(I27
I18
I6
tp3912
a(I42
I45
I6
tp3913
a(I17
I16
I1
tp3914
a(I17
I16
I3
tp3915
a(I17
I16
I6
tp3916
a(I27
I16
I0
tp3917
a(I23
I24
I0
tp3918
a(I27
I16
I2
tp3919
a(I30
I34
I0
tp3920
a(I30
I11
I0
tp3921
a(I23
I24
I2
tp3922
a(I27
I16
I4
tp3923
a(I27
I16
I5
tp3924
a(I23
I24
I4
tp3925
a(I23
I24
I5
tp3926
a(I30
I11
I2
tp3927
a(I30
I34
I4
tp3928
a(I30
I11
I4
tp3929
a(I30
I11
I5
tp3930
a(I30
I34
I5
tp3931
a(I50
I24
I1
tp3932
a(I50
I24
I3
tp3933
a(I31
I32
I0
tp3934
a(I50
I24
I6
tp3935
a(I43
I7
I0
tp3936
a(I26
I42
I0
tp3937
a(I31
I32
I2
tp3938
a(I29
I14
I1
tp3939
a(I29
I33
I1
tp3940
a(I29
I15
I1
tp3941
a(I23
I41
I1
tp3942
a(I31
I32
I4
tp3943
a(I31
I32
I5
tp3944
a(I29
I14
I3
tp3945
a(I29
I15
I3
tp3946
a(I29
I33
I3
tp3947
a(I42
I18
I1
tp3948
a(I23
I41
I3
tp3949
a(I50
I41
I0
tp3950
a(I44
I30
I0
tp3951
a(I26
I42
I2
tp3952
a(I43
I7
I4
tp3953
a(I29
I14
I6
tp3954
a(I29
I33
I6
tp3955
a(I29
I15
I6
tp3956
a(I42
I18
I3
tp3957
a(I43
I7
I5
tp3958
a(I23
I41
I6
tp3959
a(I26
I42
I4
tp3960
a(I26
I42
I5
tp3961
a(I42
I18
I6
tp3962
a(I49
I30
I1
tp3963
a(I44
I30
I2
tp3964
a(I50
I41
I2
tp3965
a(I49
I30
I3
tp3966
a(I44
I30
I4
tp3967
a(I44
I30
I5
tp3968
a(I50
I41
I4
tp3969
a(I50
I41
I5
tp3970
a(I49
I30
I6
tp3971
a(I11
I21
I1
tp3972
a(I34
I21
I1
tp3973
a(I42
I16
I0
tp3974
a(I11
I21
I3
tp3975
a(I34
I21
I3
tp3976
a(I34
I21
I6
tp3977
a(I11
I21
I6
tp3978
a(I42
I16
I2
tp3979
a(I31
I36
I3
tp3980
a(I42
I16
I4
tp3981
a(I31
I36
I6
tp3982
a(I42
I16
I5
tp3983
a(I11
I37
I0
tp3984
a(I44
I12
I0
tp3985
a(I26
I27
I0
tp3986
a(I49
I12
I1
tp3987
a(I44
I12
I2
tp3988
a(I11
I37
I4
tp3989
a(I11
I37
I5
tp3990
a(I49
I12
I3
tp3991
a(I44
I12
I4
tp3992
a(I44
I12
I5
tp3993
a(I49
I12
I6
tp3994
a(I44
I13
I0
tp3995
a(I26
I27
I2
tp3996
a(I21
I4
I0
tp3997
a(I51
I6
I0
tp3998
a(I28
I42
I3
tp3999
a(I26
I27
I4
tp4000
a(I26
I27
I5
tp4001
a(I44
I22
I0
tp4002
a(I49
I13
I1
tp4003
a(I28
I42
I6
tp4004
a(I44
I13
I2
tp4005
a(I49
I13
I3
tp4006
a(I51
I6
I2
tp4007
a(I21
I4
I2
tp4008
a(I44
I13
I4
tp4009
a(I44
I13
I5
tp4010
a(I51
I6
I4
tp4011
a(I51
I6
I5
tp4012
a(I49
I22
I1
tp4013
a(I49
I13
I6
tp4014
a(I26
I17
I1
tp4015
a(I21
I4
I4
tp4016
a(I21
I4
I5
tp4017
a(I44
I22
I2
tp4018
a(I49
I22
I3
tp4019
a(I26
I17
I3
tp4020
a(I44
I22
I4
tp4021
a(I44
I22
I5
tp4022
a(I26
I25
I0
tp4023
a(I49
I22
I6
tp4024
a(I26
I17
I6
tp4025
a(I29
I44
I0
tp4026
a(I26
I25
I2
tp4027
a(I22
I21
I1
tp4028
a(I26
I25
I4
tp4029
a(I26
I25
I5
tp4030
a(I11
I8
I3
tp4031
a(I22
I21
I3
tp4032
a(I29
I49
I1
tp4033
a(I29
I44
I2
tp4034
a(I13
I21
I1
tp4035
a(I34
I8
I6
tp4036
a(I11
I8
I6
tp4037
a(I22
I21
I6
tp4038
a(I29
I49
I3
tp4039
a(I29
I44
I4
tp4040
a(I26
I45
I1
tp4041
a(I13
I21
I3
tp4042
a(I29
I44
I5
tp4043
a(I28
I27
I1
tp4044
a(I22
I37
I0
tp4045
a(I29
I49
I6
tp4046
a(I9
I31
I0
tp4047
a(I14
I30
I1
tp4048
a(I15
I30
I1
tp4049
a(I26
I45
I3
tp4050
a(I13
I21
I6
tp4051
a(I28
I27
I3
tp4052
a(I28
I17
I0
tp4053
a(I14
I30
I3
tp4054
a(I33
I30
I3
tp4055
a(I15
I30
I3
tp4056
a(I13
I37
I0
tp4057
a(I26
I45
I6
tp4058
a(I28
I27
I6
tp4059
a(I12
I21
I1
tp4060
a(I15
I30
I6
tp4061
a(I33
I30
I6
tp4062
a(I14
I30
I6
tp4063
a(I22
I37
I2
tp4064
a(I9
I31
I2
tp4065
a(I12
I21
I3
tp4066
a(I36
I43
I0
tp4067
a(I22
I37
I4
tp4068
a(I22
I37
I5
tp4069
a(I9
I31
I4
tp4070
a(I9
I31
I5
tp4071
a(I28
I17
I2
tp4072
a(I16
I29
I1
tp4073
a(I12
I21
I6
tp4074
a(I12
I37
I0
tp4075
a(I28
I17
I4
tp4076
a(I28
I17
I5
tp4077
a(I16
I29
I3
tp4078
a(I44
I34
I0
tp4079
a(I44
I11
I0
tp4080
a(I13
I37
I4
tp4081
a(I13
I37
I5
tp4082
a(I7
I10
I6
tp4083
a(I20
I28
I1
tp4084
a(I16
I29
I6
tp4085
a(I18
I29
I0
tp4086
a(I28
I25
I1
tp4087
a(I20
I28
I3
tp4088
a(I36
I43
I4
tp4089
a(I36
I43
I5
tp4090
a(I49
I11
I1
tp4091
a(I28
I45
I0
tp4092
a(I14
I12
I1
tp4093
a(I15
I12
I1
tp4094
a(I28
I25
I3
tp4095
a(I44
I11
I2
tp4096
a(I20
I28
I6
tp4097
a(I49
I11
I3
tp4098
a(I49
I34
I3
tp4099
a(I12
I37
I4
tp4100
a(I12
I37
I5
tp4101
a(I14
I12
I3
tp4102
a(I15
I12
I3
tp4103
a(I33
I12
I3
tp4104
a(I28
I25
I6
tp4105
a(I48
I31
I0
tp4106
a(I44
I11
I4
tp4107
a(I44
I34
I4
tp4108
a(I44
I11
I5
tp4109
a(I44
I34
I5
tp4110
a(I30
I21
I1
tp4111
a(I18
I29
I2
tp4112
a(I49
I34
I6
tp4113
a(I49
I11
I6
tp4114
a(I26
I18
I1
tp4115
a(I14
I12
I6
tp4116
a(I33
I12
I6
tp4117
a(I15
I12
I6
tp4118
a(I30
I21
I3
tp4119
a(I28
I45
I2
tp4120
a(I18
I29
I4
tp4121
a(I18
I29
I5
tp4122
a(I15
I13
I1
tp4123
a(I14
I13
I1
tp4124
a(I26
I18
I3
tp4125
a(I22
I8
I1
tp4126
a(I30
I37
I0
tp4127
a(I51
I39
I1
tp4128
a(I48
I31
I2
tp4129
a(I28
I45
I4
tp4130
a(I30
I21
I6
tp4131
a(I28
I45
I5
tp4132
a(I33
I13
I3
tp4133
a(I15
I13
I3
tp4134
a(I14
I13
I3
tp4135
a(I26
I16
I0
tp4136
a(I26
I18
I6
tp4137
a(I32
I43
I3
tp4138
a(I33
I22
I1
tp4139
a(I15
I22
I1
tp4140
a(I14
I22
I1
tp4141
a(I51
I39
I3
tp4142
a(I22
I8
I3
tp4143
a(I48
I31
I4
tp4144
a(I48
I31
I5
tp4145
a(I20
I26
I0
tp4146
a(I33
I13
I6
tp4147
a(I14
I13
I6
tp4148
a(I15
I13
I6
tp4149
a(I32
I43
I6
tp4150
a(I14
I22
I3
tp4151
a(I33
I22
I3
tp4152
a(I15
I22
I3
tp4153
a(I51
I39
I6
tp4154
a(I22
I8
I6
tp4155
a(I13
I8
I3
tp4156
a(I33
I22
I6
tp4157
a(I14
I22
I6
tp4158
a(I15
I22
I6
tp4159
a(I26
I16
I2
tp4160
a(I43
I3
I6
tp4161
a(I13
I8
I6
tp4162
a(I30
I37
I4
tp4163
a(I30
I37
I5
tp4164
a(I45
I29
I0
tp4165
a(I20
I26
I2
tp4166
a(I26
I16
I4
tp4167
a(I26
I16
I5
tp4168
a(I28
I18
I0
tp4169
a(I12
I8
I3
tp4170
a(I20
I26
I4
tp4171
a(I20
I26
I5
tp4172
a(I12
I8
I6
tp4173
a(I45
I29
I2
tp4174
a(I28
I18
I2
tp4175
a(I45
I29
I4
tp4176
a(I45
I29
I5
tp4177
a(I28
I18
I4
tp4178
a(I28
I18
I5
tp4179
a(I25
I29
I1
tp4180
a(I17
I29
I0
tp4181
a(I25
I29
I3
tp4182
a(I41
I20
I0
tp4183
a(I28
I16
I1
tp4184
a(I30
I8
I3
tp4185
a(I35
I51
I0
tp4186
a(I25
I29
I6
tp4187
a(I4
I19
I3
tp4188
a(I17
I29
I2
tp4189
a(I28
I16
I3
tp4190
a(I30
I8
I6
tp4191
a(I29
I30
I0
tp4192
a(I14
I11
I1
tp4193
a(I15
I11
I1
tp4194
a(I4
I19
I6
tp4195
a(I17
I29
I4
tp4196
a(I17
I29
I5
tp4197
a(I28
I16
I6
tp4198
a(I41
I20
I2
tp4199
a(I35
I51
I2
tp4200
a(I14
I11
I3
tp4201
a(I14
I34
I3
tp4202
a(I15
I34
I3
tp4203
a(I15
I11
I3
tp4204
a(I33
I11
I3
tp4205
a(I9
I32
I0
tp4206
a(I11
I4
I6
tp4207
a(I27
I29
I1
tp4208
a(I35
I51
I4
tp4209
a(I35
I51
I5
tp4210
a(I41
I20
I4
tp4211
a(I41
I20
I5
tp4212
a(I15
I11
I6
tp4213
a(I14
I34
I6
tp4214
a(I33
I34
I6
tp4215
a(I33
I11
I6
tp4216
a(I14
I11
I6
tp4217
a(I15
I34
I6
tp4218
a(I16
I15
I0
tp4219
a(I16
I14
I0
tp4220
a(I16
I33
I0
tp4221
a(I27
I29
I3
tp4222
a(I29
I30
I2
tp4223
a(I24
I20
I1
tp4224
a(I29
I30
I4
tp4225
a(I27
I29
I6
tp4226
a(I29
I30
I5
tp4227
a(I24
I20
I3
tp4228
a(I9
I32
I4
tp4229
a(I9
I32
I5
tp4230
a(I29
I12
I0
tp4231
a(I16
I15
I2
tp4232
a(I16
I33
I2
tp4233
a(I16
I14
I2
tp4234
a(I43
I10
I3
tp4235
a(I24
I20
I6
tp4236
a(I16
I33
I4
tp4237
a(I16
I14
I4
tp4238
a(I16
I15
I4
tp4239
a(I16
I33
I5
tp4240
a(I16
I15
I5
tp4241
a(I16
I14
I5
tp4242
a(I43
I10
I6
tp4243
a(I29
I13
I0
tp4244
a(I48
I32
I0
tp4245
a(I49
I21
I0
tp4246
a(I29
I12
I2
tp4247
a(I29
I22
I0
tp4248
a(I18
I15
I1
tp4249
a(I18
I33
I1
tp4250
a(I18
I14
I1
tp4251
a(I42
I29
I1
tp4252
a(I29
I12
I4
tp4253
a(I29
I12
I5
tp4254
a(I18
I33
I3
tp4255
a(I18
I14
I3
tp4256
a(I18
I15
I3
tp4257
a(I9
I36
I6
tp4258
a(I31
I43
I1
tp4259
a(I42
I29
I3
tp4260
a(I44
I21
I1
tp4261
a(I48
I32
I2
tp4262
a(I29
I13
I2
tp4263
a(I22
I4
I3
tp4264
a(I49
I21
I2
tp4265
a(I31
I43
I3
tp4266
a(I44
I37
I0
tp4267
a(I18
I14
I6
tp4268
a(I18
I15
I6
tp4269
a(I18
I33
I6
tp4270
a(I20
I42
I0
tp4271
a(I44
I21
I3
tp4272
a(I48
I32
I4
tp4273
a(I42
I29
I6
tp4274
a(I48
I32
I5
tp4275
a(I29
I22
I2
tp4276
a(I29
I13
I4
tp4277
a(I29
I13
I5
tp4278
a(I49
I21
I4
tp4279
a(I22
I4
I6
tp4280
a(I31
I43
I6
tp4281
a(I49
I21
I5
tp4282
a(I32
I7
I6
tp4283
a(I44
I21
I6
tp4284
a(I29
I22
I4
tp4285
a(I29
I22
I5
tp4286
a(I13
I4
I6
tp4287
a(I20
I42
I2
tp4288
a(I49
I37
I3
tp4289
a(I25
I14
I0
tp4290
a(I25
I15
I0
tp4291
a(I25
I33
I0
tp4292
a(I48
I36
I3
tp4293
a(I44
I37
I4
tp4294
a(I45
I14
I1
tp4295
a(I45
I15
I1
tp4296
a(I12
I4
I6
tp4297
a(I44
I37
I5
tp4298
a(I8
I40
I0
tp4299
a(I16
I49
I0
tp4300
a(I20
I42
I4
tp4301
a(I20
I42
I5
tp4302
a(I49
I37
I6
tp4303
a(I48
I36
I6
tp4304
a(I45
I15
I3
tp4305
a(I45
I33
I3
tp4306
a(I45
I14
I3
tp4307
a(I49
I8
I0
tp4308
a(I20
I27
I0
tp4309
a(I29
I34
I0
tp4310
a(I29
I11
I0
tp4311
a(I45
I33
I6
tp4312
a(I45
I14
I6
tp4313
a(I45
I15
I6
tp4314
a(I8
I19
I1
tp4315
a(I25
I15
I2
tp4316
a(I25
I33
I2
tp4317
a(I25
I14
I2
tp4318
a(I16
I44
I1
tp4319
a(I18
I44
I0
tp4320
a(I16
I49
I2
tp4321
a(I27
I33
I0
tp4322
a(I27
I15
I0
tp4323
a(I27
I14
I0
tp4324
a(I50
I20
I0
tp4325
a(I8
I19
I3
tp4326
a(I25
I15
I4
tp4327
a(I25
I33
I4
tp4328
a(I25
I14
I4
tp4329
a(I25
I33
I5
tp4330
a(I25
I14
I5
tp4331
a(I25
I15
I5
tp4332
a(I16
I44
I3
tp4333
a(I17
I14
I1
tp4334
a(I17
I33
I1
tp4335
a(I17
I15
I1
tp4336
a(I8
I40
I4
tp4337
a(I8
I40
I5
tp4338
a(I46
I38
I0
tp4339
a(I16
I49
I4
tp4340
a(I30
I4
I6
tp4341
a(I16
I49
I5
tp4342
a(I49
I8
I2
tp4343
a(I14
I21
I0
tp4344
a(I15
I21
I0
tp4345
a(I33
I21
I0
tp4346
a(I8
I19
I6
tp4347
a(I23
I20
I1
tp4348
a(I17
I14
I3
tp4349
a(I17
I15
I3
tp4350
a(I17
I33
I3
tp4351
a(I16
I44
I6
tp4352
a(I44
I8
I3
tp4353
a(I20
I27
I2
tp4354
a(I29
I34
I2
tp4355
a(I29
I11
I2
tp4356
a(I37
I19
I0
tp4357
a(I18
I49
I1
tp4358
a(I49
I8
I4
tp4359
a(I20
I25
I0
tp4360
a(I49
I8
I5
tp4361
a(I18
I44
I2
tp4362
a(I23
I20
I3
tp4363
a(I44
I8
I6
tp4364
a(I20
I27
I4
tp4365
a(I17
I14
I6
tp4366
a(I17
I15
I6
tp4367
a(I17
I33
I6
tp4368
a(I27
I15
I2
tp4369
a(I29
I11
I4
tp4370
a(I27
I33
I2
tp4371
a(I27
I14
I2
tp4372
a(I29
I34
I4
tp4373
a(I20
I17
I1
tp4374
a(I20
I27
I5
tp4375
a(I29
I11
I5
tp4376
a(I29
I34
I5
tp4377
a(I18
I49
I3
tp4378
a(I50
I20
I2
tp4379
a(I18
I44
I4
tp4380
a(I18
I44
I5
tp4381
a(I15
I21
I2
tp4382
a(I14
I21
I2
tp4383
a(I33
I21
I2
tp4384
a(I23
I20
I6
tp4385
a(I27
I33
I4
tp4386
a(I27
I15
I4
tp4387
a(I27
I14
I4
tp4388
a(I20
I17
I3
tp4389
a(I27
I14
I5
tp4390
a(I27
I33
I5
tp4391
a(I27
I15
I5
tp4392
a(I18
I49
I6
tp4393
a(I50
I20
I4
tp4394
a(I21
I40
I0
tp4395
a(I50
I20
I5
tp4396
a(I37
I19
I2
tp4397
a(I45
I44
I0
tp4398
a(I14
I21
I4
tp4399
a(I15
I21
I4
tp4400
a(I33
I21
I4
tp4401
a(I33
I21
I5
tp4402
a(I15
I21
I5
tp4403
a(I14
I21
I5
tp4404
a(I42
I15
I0
tp4405
a(I42
I33
I0
tp4406
a(I42
I14
I0
tp4407
a(I20
I25
I2
tp4408
a(I46
I38
I4
tp4409
a(I20
I17
I6
tp4410
a(I46
I38
I5
tp4411
a(I37
I19
I4
tp4412
a(I37
I19
I5
tp4413
a(I35
I6
I0
tp4414
a(I20
I45
I1
tp4415
a(I20
I25
I4
tp4416
a(I37
I40
I6
tp4417
a(I25
I49
I0
tp4418
a(I20
I25
I5
tp4419
a(I21
I19
I1
tp4420
a(I14
I37
I3
tp4421
a(I15
I37
I3
tp4422
a(I21
I40
I2
tp4423
a(I45
I49
I1
tp4424
a(I20
I45
I3
tp4425
a(I21
I19
I3
tp4426
a(I45
I44
I2
tp4427
a(I26
I29
I1
tp4428
a(I42
I14
I2
tp4429
a(I42
I15
I2
tp4430
a(I17
I44
I0
tp4431
a(I14
I37
I6
tp4432
a(I33
I37
I6
tp4433
a(I15
I37
I6
tp4434
a(I14
I8
I0
tp4435
a(I33
I8
I0
tp4436
a(I15
I8
I0
tp4437
a(I21
I40
I4
tp4438
a(I45
I49
I3
tp4439
a(I21
I40
I5
tp4440
a(I20
I45
I6
tp4441
a(I25
I44
I1
tp4442
a(I45
I44
I4
tp4443
a(I21
I19
I6
tp4444
a(I45
I44
I5
tp4445
a(I26
I29
I3
tp4446
a(I42
I15
I4
tp4447
a(I42
I33
I4
tp4448
a(I42
I14
I4
tp4449
a(I42
I33
I5
tp4450
a(I42
I14
I5
tp4451
a(I42
I15
I5
tp4452
a(I10
I35
I3
tp4453
a(I31
I7
I3
tp4454
a(I25
I49
I2
tp4455
a(I45
I49
I6
tp4456
a(I27
I49
I0
tp4457
a(I35
I6
I4
tp4458
a(I35
I6
I5
tp4459
a(I25
I44
I3
tp4460
a(I26
I29
I6
tp4461
a(I28
I29
I0
tp4462
a(I10
I35
I6
tp4463
a(I31
I7
I6
tp4464
a(I17
I49
I1
tp4465
a(I25
I49
I4
tp4466
a(I25
I49
I5
tp4467
a(I17
I44
I2
tp4468
a(I15
I8
I2
tp4469
a(I14
I8
I2
tp4470
a(I20
I16
I0
tp4471
a(I20
I18
I1
tp4472
a(I25
I44
I6
tp4473
a(I17
I49
I3
tp4474
a(I27
I44
I1
tp4475
a(I17
I44
I4
tp4476
a(I33
I8
I4
tp4477
a(I14
I8
I4
tp4478
a(I15
I8
I4
tp4479
a(I49
I4
I0
tp4480
a(I14
I8
I5
tp4481
a(I33
I8
I5
tp4482
a(I15
I8
I5
tp4483
a(I17
I44
I5
tp4484
a(I20
I18
I3
tp4485
a(I27
I49
I2
tp4486
a(I17
I49
I6
tp4487
a(I27
I44
I3
tp4488
a(I28
I29
I2
tp4489
a(I20
I18
I6
tp4490
a(I27
I49
I4
tp4491
a(I27
I49
I5
tp4492
a(I24
I28
I0
tp4493
a(I20
I16
I2
tp4494
a(I42
I49
I0
tp4495
a(I27
I44
I6
tp4496
a(I28
I29
I4
tp4497
a(I28
I29
I5
tp4498
a(I18
I30
I0
tp4499
a(I16
I30
I1
tp4500
a(I20
I16
I4
tp4501
a(I20
I16
I5
tp4502
a(I41
I28
I3
tp4503
a(I16
I30
I3
tp4504
a(I49
I4
I4
tp4505
a(I49
I4
I5
tp4506
a(I41
I26
I0
tp4507
a(I44
I4
I6
tp4508
a(I29
I37
I0
tp4509
a(I24
I28
I2
tp4510
a(I42
I49
I2
tp4511
a(I41
I28
I6
tp4512
a(I29
I21
I1
tp4513
a(I16
I30
I6
tp4514
a(I32
I10
I0
tp4515
a(I42
I44
I3
tp4516
a(I18
I30
I2
tp4517
a(I18
I12
I0
tp4518
a(I16
I12
I1
tp4519
a(I42
I49
I4
tp4520
a(I35
I39
I3
tp4521
a(I24
I28
I4
tp4522
a(I42
I49
I5
tp4523
a(I24
I28
I5
tp4524
a(I29
I21
I3
tp4525
a(I26
I15
I0
tp4526
a(I26
I33
I0
tp4527
a(I26
I14
I0
tp4528
a(I18
I30
I4
tp4529
a(I45
I30
I0
tp4530
a(I42
I44
I6
tp4531
a(I18
I30
I5
tp4532
a(I18
I13
I0
tp4533
a(I16
I12
I3
tp4534
a(I36
I10
I6
tp4535
a(I35
I39
I6
tp4536
a(I34
I19
I0
tp4537
a(I11
I19
I0
tp4538
a(I16
I13
I1
tp4539
a(I41
I26
I2
tp4540
a(I3
I35
I6
tp4541
a(I29
I21
I6
tp4542
a(I18
I22
I0
tp4543
a(I38
I23
I0
tp4544
a(I9
I43
I3
tp4545
a(I29
I37
I2
tp4546
a(I16
I22
I1
tp4547
a(I15
I4
I0
tp4548
a(I14
I4
I0
tp4549
a(I16
I12
I6
tp4550
a(I16
I13
I3
tp4551
a(I24
I26
I1
tp4552
a(I18
I12
I2
tp4553
a(I41
I26
I4
tp4554
a(I9
I43
I6
tp4555
a(I41
I26
I5
tp4556
a(I29
I37
I4
tp4557
a(I31
I3
I0
tp4558
a(I32
I10
I4
tp4559
a(I29
I37
I5
tp4560
a(I32
I10
I5
tp4561
a(I16
I22
I3
tp4562
a(I17
I30
I0
tp4563
a(I26
I15
I2
tp4564
a(I26
I33
I2
tp4565
a(I26
I14
I2
tp4566
a(I45
I12
I0
tp4567
a(I16
I13
I6
tp4568
a(I45
I30
I2
tp4569
a(I18
I12
I4
tp4570
a(I24
I26
I3
tp4571
a(I18
I12
I5
tp4572
a(I18
I13
I2
tp4573
a(I11
I19
I2
tp4574
a(I34
I19
I2
tp4575
a(I48
I43
I1
tp4576
a(I16
I22
I6
tp4577
a(I25
I30
I1
tp4578
a(I18
I22
I2
tp4579
a(I11
I40
I3
tp4580
a(I26
I33
I4
tp4581
a(I26
I14
I4
tp4582
a(I26
I15
I4
tp4583
a(I38
I50
I3
tp4584
a(I26
I15
I5
tp4585
a(I26
I14
I5
tp4586
a(I26
I33
I5
tp4587
a(I45
I13
I0
tp4588
a(I45
I30
I4
tp4589
a(I38
I23
I2
tp4590
a(I45
I30
I5
tp4591
a(I29
I8
I1
tp4592
a(I18
I13
I4
tp4593
a(I24
I26
I6
tp4594
a(I18
I13
I5
tp4595
a(I34
I19
I4
tp4596
a(I11
I19
I4
tp4597
a(I11
I19
I5
tp4598
a(I34
I19
I5
tp4599
a(I48
I43
I3
tp4600
a(I45
I22
I0
tp4601
a(I25
I30
I3
tp4602
a(I18
I22
I4
tp4603
a(I18
I22
I5
tp4604
a(I11
I40
I6
tp4605
a(I34
I40
I6
tp4606
a(I23
I28
I0
tp4607
a(I38
I50
I6
tp4608
a(I17
I12
I0
tp4609
a(I29
I8
I3
tp4610
a(I38
I23
I4
tp4611
a(I38
I23
I5
tp4612
a(I15
I4
I4
tp4613
a(I14
I4
I4
tp4614
a(I17
I30
I2
tp4615
a(I48
I43
I6
tp4616
a(I14
I4
I5
tp4617
a(I15
I4
I5
tp4618
a(I31
I3
I4
tp4619
a(I45
I12
I2
tp4620
a(I31
I3
I5
tp4621
a(I22
I19
I0
tp4622
a(I28
I15
I1
tp4623
a(I28
I14
I1
tp4624
a(I25
I30
I6
tp4625
a(I18
I34
I0
tp4626
a(I18
I11
I0
tp4627
a(I27
I30
I1
tp4628
a(I25
I12
I1
tp4629
a(I17
I13
I0
tp4630
a(I13
I19
I0
tp4631
a(I29
I8
I6
tp4632
a(I17
I30
I4
tp4633
a(I16
I11
I1
tp4634
a(I17
I30
I5
tp4635
a(I45
I12
I4
tp4636
a(I45
I13
I2
tp4637
a(I45
I12
I5
tp4638
a(I17
I22
I0
tp4639
a(I26
I49
I0
tp4640
a(I28
I33
I3
tp4641
a(I28
I14
I3
tp4642
a(I28
I15
I3
tp4643
a(I27
I30
I3
tp4644
a(I45
I22
I2
tp4645
a(I25
I12
I3
tp4646
a(I12
I19
I0
tp4647
a(I25
I13
I1
tp4648
a(I16
I11
I3
tp4649
a(I16
I34
I3
tp4650
a(I45
I13
I4
tp4651
a(I22
I40
I1
tp4652
a(I23
I28
I2
tp4653
a(I45
I13
I5
tp4654
a(I25
I22
I1
tp4655
a(I17
I12
I2
tp4656
a(I50
I28
I1
tp4657
a(I28
I15
I6
tp4658
a(I28
I33
I6
tp4659
a(I28
I14
I6
tp4660
a(I40
I48
I0
tp4661
a(I27
I30
I6
tp4662
a(I45
I22
I4
tp4663
a(I22
I19
I2
tp4664
a(I25
I13
I3
tp4665
a(I45
I22
I5
tp4666
a(I25
I12
I6
tp4667
a(I27
I12
I1
tp4668
a(I41
I42
I0
tp4669
a(I16
I34
I6
tp4670
a(I16
I11
I6
tp4671
a(I18
I11
I2
tp4672
a(I18
I34
I2
tp4673
a(I22
I40
I3
tp4674
a(I13
I19
I2
tp4675
a(I25
I22
I3
tp4676
a(I17
I12
I4
tp4677
a(I23
I28
I4
tp4678
a(I17
I13
I2
tp4679
a(I50
I26
I0
tp4680
a(I26
I44
I1
tp4681
a(I31
I10
I0
tp4682
a(I17
I12
I5
tp4683
a(I23
I28
I5
tp4684
a(I7
I35
I0
tp4685
a(I50
I28
I3
tp4686
a(I45
I34
I0
tp4687
a(I45
I11
I0
tp4688
a(I22
I19
I4
tp4689
a(I13
I40
I3
tp4690
a(I22
I19
I5
tp4691
a(I17
I22
I2
tp4692
a(I25
I13
I6
tp4693
a(I26
I49
I2
tp4694
a(I27
I12
I3
tp4695
a(I27
I13
I1
tp4696
a(I38
I24
I0
tp4697
a(I30
I19
I0
tp4698
a(I18
I11
I4
tp4699
a(I18
I34
I4
tp4700
a(I13
I19
I4
tp4701
a(I18
I34
I5
tp4702
a(I18
I11
I5
tp4703
a(I12
I19
I2
tp4704
a(I22
I40
I6
tp4705
a(I13
I19
I5
tp4706
a(I28
I44
I0
tp4707
a(I17
I13
I4
tp4708
a(I27
I22
I1
tp4709
a(I26
I44
I3
tp4710
a(I25
I22
I6
tp4711
a(I17
I13
I5
tp4712
a(I19
I48
I1
tp4713
a(I50
I28
I6
tp4714
a(I12
I40
I3
tp4715
a(I42
I30
I3
tp4716
a(I13
I40
I6
tp4717
a(I17
I22
I4
tp4718
a(I27
I13
I3
tp4719
a(I26
I49
I4
tp4720
a(I23
I26
I1
tp4721
a(I40
I48
I2
tp4722
a(I17
I22
I5
tp4723
a(I26
I49
I5
tp4724
a(I27
I12
I6
tp4725
a(I40
I9
I0
tp4726
a(I12
I19
I4
tp4727
a(I12
I19
I5
tp4728
a(I27
I22
I3
tp4729
a(I19
I48
I3
tp4730
a(I26
I44
I6
tp4731
a(I17
I34
I0
tp4732
a(I17
I11
I0
tp4733
a(I31
I10
I2
tp4734
a(I12
I40
I6
tp4735
a(I40
I48
I4
tp4736
a(I42
I30
I6
tp4737
a(I41
I27
I0
tp4738
a(I40
I48
I5
tp4739
a(I23
I26
I3
tp4740
a(I27
I13
I6
tp4741
a(I50
I26
I2
tp4742
a(I45
I11
I2
tp4743
a(I19
I48
I6
tp4744
a(I24
I42
I1
tp4745
a(I30
I19
I2
tp4746
a(I28
I49
I1
tp4747
a(I27
I22
I6
tp4748
a(I7
I35
I4
tp4749
a(I31
I10
I4
tp4750
a(I7
I35
I5
tp4751
a(I31
I10
I5
tp4752
a(I25
I11
I1
tp4753
a(I38
I24
I2
tp4754
a(I9
I7
I6
tp4755
a(I41
I42
I4
tp4756
a(I41
I42
I5
tp4757
a(I30
I40
I3
tp4758
a(I42
I12
I3
tp4759
a(I28
I44
I2
tp4760
a(I19
I9
I1
tp4761
a(I23
I26
I6
tp4762
a(I50
I26
I4
tp4763
a(I45
I11
I4
tp4764
a(I45
I34
I4
tp4765
a(I50
I26
I5
tp4766
a(I45
I11
I5
tp4767
a(I45
I34
I5
tp4768
a(I42
I22
I1
tp4769
a(I30
I19
I4
tp4770
a(I24
I42
I3
tp4771
a(I28
I49
I3
tp4772
a(I30
I19
I5
tp4773
a(I25
I34
I3
tp4774
a(I25
I11
I3
tp4775
a(I41
I25
I0
tp4776
a(I38
I24
I4
tp4777
a(I42
I13
I3
tp4778
a(I38
I24
I5
tp4779
a(I28
I44
I4
tp4780
a(I30
I40
I6
tp4781
a(I24
I17
I0
tp4782
a(I19
I9
I3
tp4783
a(I42
I12
I6
tp4784
a(I28
I44
I5
tp4785
a(I17
I34
I2
tp4786
a(I17
I11
I2
tp4787
a(I42
I22
I3
tp4788
a(I48
I7
I3
tp4789
a(I40
I9
I4
tp4790
a(I20
I29
I1
tp4791
a(I40
I9
I5
tp4792
a(I28
I49
I6
tp4793
a(I24
I42
I6
tp4794
a(I27
I11
I1
tp4795
a(I29
I4
I3
tp4796
a(I41
I27
I2
tp4797
a(I25
I34
I6
tp4798
a(I25
I11
I6
tp4799
a(I16
I21
I0
tp4800
a(I42
I13
I6
tp4801
a(I19
I9
I6
tp4802
a(I41
I17
I1
tp4803
a(I17
I34
I4
tp4804
a(I17
I11
I4
tp4805
a(I17
I11
I5
tp4806
a(I17
I34
I5
tp4807
a(I24
I27
I1
tp4808
a(I48
I7
I6
tp4809
a(I42
I22
I6
tp4810
a(I20
I29
I3
tp4811
a(I27
I34
I3
tp4812
a(I27
I11
I3
tp4813
a(I41
I27
I4
tp4814
a(I29
I4
I6
tp4815
a(I38
I41
I6
tp4816
a(I41
I27
I5
tp4817
a(I24
I45
I0
tp4818
a(I41
I17
I3
tp4819
a(I24
I27
I3
tp4820
a(I41
I25
I2
tp4821
a(I20
I29
I6
tp4822
a(I27
I34
I6
tp4823
a(I27
I11
I6
tp4824
a(I24
I17
I2
tp4825
a(I24
I25
I1
tp4826
a(I41
I17
I6
tp4827
a(I18
I37
I0
tp4828
a(I16
I21
I2
tp4829
a(I24
I27
I6
tp4830
a(I41
I25
I4
tp4831
a(I41
I25
I5
tp4832
a(I50
I42
I0
tp4833
a(I43
I35
I0
tp4834
a(I24
I17
I4
tp4835
a(I24
I17
I5
tp4836
a(I41
I45
I3
tp4837
a(I10
I51
I1
tp4838
a(I24
I25
I3
tp4839
a(I18
I21
I1
tp4840
a(I42
I11
I3
tp4841
a(I26
I30
I1
tp4842
a(I24
I18
I0
tp4843
a(I16
I21
I4
tp4844
a(I16
I21
I5
tp4845
a(I24
I45
I2
tp4846
a(I44
I19
I0
tp4847
a(I49
I40
I0
tp4848
a(I16
I8
I0
tp4849
a(I41
I16
I0
tp4850
a(I10
I51
I3
tp4851
a(I28
I30
I0
tp4852
a(I41
I45
I6
tp4853
a(I16
I37
I3
tp4854
a(I18
I21
I3
tp4855
a(I24
I25
I6
tp4856
a(I23
I42
I1
tp4857
a(I26
I30
I3
tp4858
a(I42
I34
I6
tp4859
a(I42
I11
I6
tp4860
a(I41
I18
I1
tp4861
a(I24
I45
I4
tp4862
a(I25
I21
I0
tp4863
a(I24
I45
I5
tp4864
a(I10
I51
I6
tp4865
a(I45
I37
I0
tp4866
a(I43
I35
I2
tp4867
a(I18
I37
I2
tp4868
a(I20
I14
I0
tp4869
a(I20
I15
I0
tp4870
a(I20
I33
I0
tp4871
a(I50
I27
I0
tp4872
a(I26
I12
I1
tp4873
a(I16
I37
I6
tp4874
a(I18
I21
I6
tp4875
a(I23
I42
I3
tp4876
a(I50
I42
I2
tp4877
a(I26
I30
I6
tp4878
a(I23
I17
I0
tp4879
a(I41
I18
I3
tp4880
a(I49
I19
I1
tp4881
a(I48
I3
I0
tp4882
a(I28
I12
I0
tp4883
a(I43
I35
I4
tp4884
a(I45
I21
I1
tp4885
a(I43
I35
I5
tp4886
a(I18
I37
I4
tp4887
a(I44
I19
I2
tp4888
a(I49
I40
I2
tp4889
a(I26
I13
I1
tp4890
a(I18
I37
I5
tp4891
a(I24
I18
I2
tp4892
a(I16
I8
I2
tp4893
a(I27
I21
I0
tp4894
a(I26
I12
I3
tp4895
a(I41
I16
I2
tp4896
a(I28
I13
I0
tp4897
a(I26
I22
I1
tp4898
a(I50
I42
I4
tp4899
a(I28
I30
I2
tp4900
a(I44
I40
I3
tp4901
a(I49
I19
I3
tp4902
a(I17
I37
I0
tp4903
a(I23
I42
I6
tp4904
a(I50
I42
I5
tp4905
a(I41
I18
I6
tp4906
a(I28
I22
I0
tp4907
a(I50
I25
I0
tp4908
a(I24
I16
I1
tp4909
a(I45
I21
I3
tp4910
a(I23
I27
I1
tp4911
a(I18
I8
I1
tp4912
a(I44
I19
I4
tp4913
a(I49
I40
I4
tp4914
a(I26
I13
I3
tp4915
a(I44
I19
I5
tp4916
a(I49
I40
I5
tp4917
a(I23
I45
I0
tp4918
a(I16
I8
I4
tp4919
a(I24
I18
I4
tp4920
a(I25
I21
I2
tp4921
a(I16
I8
I5
tp4922
a(I24
I18
I5
tp4923
a(I41
I16
I4
tp4924
a(I26
I12
I6
tp4925
a(I41
I16
I5
tp4926
a(I26
I22
I3
tp4927
a(I17
I21
I1
tp4928
a(I28
I30
I4
tp4929
a(I28
I30
I5
tp4930
a(I44
I40
I6
tp4931
a(I49
I19
I6
tp4932
a(I20
I33
I2
tp4933
a(I20
I14
I2
tp4934
a(I20
I15
I2
tp4935
a(I24
I16
I3
tp4936
a(I18
I8
I3
tp4937
a(I45
I21
I6
tp4938
a(I50
I27
I2
tp4939
a(I23
I27
I3
tp4940
a(I25
I8
I0
tp4941
a(I25
I21
I4
tp4942
a(I26
I13
I6
tp4943
a(I50
I17
I1
tp4944
a(I23
I17
I2
tp4945
a(I33
I40
I0
tp4946
a(I15
I40
I0
tp4947
a(I14
I40
I0
tp4948
a(I25
I21
I5
tp4949
a(I28
I12
I2
tp4950
a(I9
I10
I0
tp4951
a(I17
I21
I3
tp4952
a(I23
I25
I1
tp4953
a(I45
I37
I4
tp4954
a(I42
I21
I0
tp4955
a(I26
I22
I6
tp4956
a(I45
I37
I5
tp4957
a(I48
I3
I4
tp4958
a(I27
I21
I2
tp4959
a(I20
I33
I4
tp4960
a(I20
I15
I4
tp4961
a(I20
I14
I4
tp4962
a(I25
I37
I3
tp4963
a(I48
I3
I5
tp4964
a(I20
I33
I5
tp4965
a(I20
I15
I5
tp4966
a(I20
I14
I5
tp4967
a(I3
I51
I3
tp4968
a(I18
I8
I6
tp4969
a(I50
I27
I4
tp4970
a(I24
I16
I6
tp4971
a(I28
I13
I2
tp4972
a(I50
I27
I5
tp4973
a(I23
I27
I6
tp4974
a(I17
I37
I2
tp4975
a(I50
I17
I3
tp4976
a(I28
I12
I4
tp4977
a(I23
I17
I4
tp4978
a(I28
I12
I5
tp4979
a(I23
I17
I5
tp4980
a(I23
I18
I0
tp4981
a(I28
I22
I2
tp4982
a(I27
I8
I0
tp4983
a(I50
I25
I2
tp4984
a(I23
I25
I3
tp4985
a(I17
I21
I6
tp4986
a(I40
I31
I0
tp4987
a(I20
I49
I0
tp4988
a(I27
I21
I4
tp4989
a(I50
I45
I1
tp4990
a(I23
I45
I2
tp4991
a(I3
I51
I6
tp4992
a(I27
I21
I5
tp4993
a(I26
I11
I1
tp4994
a(I25
I37
I6
tp4995
a(I28
I13
I4
tp4996
a(I28
I11
I0
tp4997
a(I28
I34
I0
tp4998
a(I17
I37
I4
tp4999
a(I28
I13
I5
tp5000
a(I17
I37
I5
tp5001
a(I33
I19
I1
tp5002
a(I14
I19
I1
tp5003
a(I15
I19
I1
tp5004
a(I16
I4
I0
tp5005
a(I45
I8
I3
tp5006
a(I48
I10
I0
tp5007
a(I27
I37
I3
tp5008
a(I50
I17
I6
tp5009
a(I28
I22
I4
tp5010
a(I28
I22
I5
tp5011
a(I25
I8
I2
tp5012
a(I50
I25
I4
tp5013
a(I50
I25
I5
tp5014
a(I23
I25
I6
tp5015
a(I14
I40
I2
tp5016
a(I15
I40
I2
tp5017
a(I50
I45
I3
tp5018
a(I17
I8
I1
tp5019
a(I23
I45
I4
tp5020
a(I26
I34
I3
tp5021
a(I26
I11
I3
tp5022
a(I23
I45
I5
tp5023
a(I50
I16
I0
tp5024
a(I42
I21
I2
tp5025
a(I33
I19
I3
tp5026
a(I14
I19
I3
tp5027
a(I15
I19
I3
tp5028
a(I45
I8
I6
tp5029
a(I9
I10
I4
tp5030
a(I27
I37
I6
tp5031
a(I9
I10
I5
tp5032
a(I25
I8
I4
tp5033
a(I19
I31
I1
tp5034
a(I25
I8
I5
tp5035
a(I33
I40
I4
tp5036
a(I42
I8
I0
tp5037
a(I15
I40
I4
tp5038
a(I14
I40
I4
tp5039
a(I15
I40
I5
tp5040
a(I33
I40
I5
tp5041
a(I14
I40
I5
tp5042
a(I20
I44
I1
tp5043
a(I17
I8
I3
tp5044
a(I50
I45
I6
tp5045
a(I26
I34
I6
tp5046
a(I26
I11
I6
tp5047
a(I40
I31
I2
tp5048
a(I50
I18
I1
tp5049
a(I27
I8
I2
tp5050
a(I23
I18
I2
tp5051
a(I42
I21
I4
tp5052
a(I42
I21
I5
tp5053
a(I15
I19
I6
tp5054
a(I14
I19
I6
tp5055
a(I33
I19
I6
tp5056
a(I20
I49
I2
tp5057
a(I4
I48
I0
tp5058
a(I19
I31
I3
tp5059
a(I48
I10
I2
tp5060
a(I23
I16
I1
tp5061
a(I28
I11
I2
tp5062
a(I20
I44
I3
tp5063
a(I17
I8
I6
tp5064
a(I40
I31
I4
tp5065
a(I40
I31
I5
tp5066
a(I27
I8
I4
tp5067
a(I50
I18
I3
tp5068
a(I23
I18
I4
tp5069
a(I27
I8
I5
tp5070
a(I23
I18
I5
tp5071
a(I20
I49
I4
tp5072
a(I20
I49
I5
tp5073
a(I48
I10
I4
tp5074
a(I19
I31
I6
tp5075
a(I48
I10
I5
tp5076
a(I50
I16
I2
tp5077
a(I28
I11
I4
tp5078
a(I28
I34
I4
tp5079
a(I23
I16
I3
tp5080
a(I42
I37
I6
tp5081
a(I28
I34
I5
tp5082
a(I28
I11
I5
tp5083
a(I16
I4
I4
tp5084
a(I7
I51
I0
tp5085
a(I16
I4
I5
tp5086
a(I20
I44
I6
tp5087
a(I25
I4
I0
tp5088
a(I50
I18
I6
tp5089
a(I18
I4
I3
tp5090
a(I29
I19
I0
tp5091
a(I50
I16
I4
tp5092
a(I39
I5
I6
tp5093
a(I50
I16
I5
tp5094
a(I23
I16
I6
tp5095
a(I10
I6
I6
tp5096
a(I26
I21
I0
tp5097
a(I42
I8
I4
tp5098
a(I42
I8
I5
tp5099
a(I36
I35
I0
tp5100
a(I18
I4
I6
tp5101
a(I46
I23
I0
tp5102
a(I27
I4
I0
tp5103
a(I10
I39
I0
tp5104
a(I4
I48
I4
tp5105
a(I40
I32
I0
tp5106
a(I4
I48
I5
tp5107
a(I7
I51
I2
tp5108
a(I24
I29
I0
tp5109
a(I29
I40
I1
tp5110
a(I7
I51
I4
tp5111
a(I19
I36
I0
tp5112
a(I7
I51
I5
tp5113
a(I29
I19
I2
tp5114
a(I38
I20
I1
tp5115
a(I46
I50
I1
tp5116
a(I29
I40
I3
tp5117
a(I45
I4
I6
tp5118
a(I26
I21
I2
tp5119
a(I19
I32
I1
tp5120
a(I25
I4
I4
tp5121
a(I25
I4
I5
tp5122
a(I26
I8
I0
tp5123
a(I17
I4
I3
tp5124
a(I41
I29
I1
tp5125
a(I28
I37
I0
tp5126
a(I29
I19
I4
tp5127
a(I8
I48
I0
tp5128
a(I29
I19
I5
tp5129
a(I38
I20
I3
tp5130
a(I46
I23
I2
tp5131
a(I20
I30
I1
tp5132
a(I46
I50
I3
tp5133
a(I36
I35
I4
tp5134
a(I10
I39
I4
tp5135
a(I36
I35
I5
tp5136
a(I19
I32
I3
tp5137
a(I26
I21
I4
tp5138
a(I10
I39
I5
tp5139
a(I29
I40
I6
tp5140
a(I26
I21
I5
tp5141
a(I41
I29
I3
tp5142
a(I17
I4
I6
tp5143
a(I26
I37
I3
tp5144
a(I27
I4
I4
tp5145
a(I40
I32
I4
tp5146
a(I28
I21
I1
tp5147
a(I40
I32
I5
tp5148
a(I27
I4
I5
tp5149
a(I32
I35
I3
tp5150
a(I24
I29
I2
tp5151
a(I19
I36
I2
tp5152
a(I38
I20
I6
tp5153
a(I20
I30
I3
tp5154
a(I46
I23
I4
tp5155
a(I46
I23
I5
tp5156
a(I19
I32
I6
tp5157
a(I46
I50
I6
tp5158
a(I43
I51
I0
tp5159
a(I8
I9
I0
tp5160
a(I20
I12
I1
tp5161
a(I41
I29
I6
tp5162
a(I28
I21
I3
tp5163
a(I26
I37
I6
tp5164
a(I32
I35
I6
tp5165
a(I19
I36
I4
tp5166
a(I19
I36
I5
tp5167
a(I24
I29
I4
tp5168
a(I46
I24
I0
tp5169
a(I24
I29
I5
tp5170
a(I26
I8
I2
tp5171
a(I20
I13
I1
tp5172
a(I20
I30
I6
tp5173
a(I8
I48
I2
tp5174
a(I20
I22
I1
tp5175
a(I40
I36
I6
tp5176
a(I21
I48
I0
tp5177
a(I20
I12
I3
tp5178
a(I28
I21
I6
tp5179
a(I23
I29
I0
tp5180
a(I41
I15
I0
tp5181
a(I41
I14
I0
tp5182
a(I41
I33
I0
tp5183
a(I26
I8
I4
tp5184
a(I20
I13
I3
tp5185
a(I8
I48
I4
tp5186
a(I26
I8
I5
tp5187
a(I28
I37
I4
tp5188
a(I8
I48
I5
tp5189
a(I28
I37
I5
tp5190
a(I20
I22
I3
tp5191
a(I43
I51
I2
tp5192
a(I20
I12
I6
tp5193
a(I21
I9
I0
tp5194
a(I20
I13
I6
tp5195
a(I43
I51
I4
tp5196
a(I37
I48
I3
tp5197
a(I28
I8
I3
tp5198
a(I43
I51
I5
tp5199
a(I20
I22
I6
tp5200
a(I26
I4
I0
tp5201
a(I8
I9
I4
tp5202
a(I46
I24
I2
tp5203
a(I21
I48
I2
tp5204
a(I8
I9
I5
tp5205
a(I20
I34
I1
tp5206
a(I20
I11
I1
tp5207
a(I51
I5
I0
tp5208
a(I31
I35
I1
tp5209
a(I37
I48
I6
tp5210
a(I50
I29
I1
tp5211
a(I28
I8
I6
tp5212
a(I41
I14
I2
tp5213
a(I41
I15
I2
tp5214
a(I23
I29
I2
tp5215
a(I21
I48
I4
tp5216
a(I4
I31
I0
tp5217
a(I24
I15
I1
tp5218
a(I24
I33
I1
tp5219
a(I24
I14
I1
tp5220
a(I21
I48
I5
tp5221
a(I46
I24
I4
tp5222
a(I46
I24
I5
tp5223
a(I20
I11
I3
tp5224
a(I20
I34
I3
tp5225
a(I46
I41
I3
tp5226
a(I16
I40
I0
tp5227
a(I41
I49
I0
tp5228
a(I31
I35
I3
tp5229
a(I21
I9
I2
tp5230
a(I50
I29
I3
tp5231
a(I41
I33
I4
tp5232
a(I41
I15
I4
tp5233
a(I41
I14
I4
tp5234
a(I23
I29
I4
tp5235
a(I41
I14
I5
tp5236
a(I41
I33
I5
tp5237
a(I41
I15
I5
tp5238
a(I23
I29
I5
tp5239
a(I38
I28
I0
tp5240
a(I24
I33
I3
tp5241
a(I24
I15
I3
tp5242
a(I24
I14
I3
tp5243
a(I24
I44
I0
tp5244
a(I37
I9
I6
tp5245
a(I18
I19
I0
tp5246
a(I20
I11
I6
tp5247
a(I20
I34
I6
tp5248
a(I51
I5
I2
tp5249
a(I31
I35
I6
tp5250
a(I46
I41
I6
tp5251
a(I21
I9
I4
tp5252
a(I21
I9
I5
tp5253
a(I50
I29
I6
tp5254
a(I47
I46
I3
tp5255
a(I24
I14
I6
tp5256
a(I24
I33
I6
tp5257
a(I24
I15
I6
tp5258
a(I51
I5
I4
tp5259
a(I51
I5
I5
tp5260
a(I26
I4
I4
tp5261
a(I50
I33
I0
tp5262
a(I50
I15
I0
tp5263
a(I50
I14
I0
tp5264
a(I26
I4
I5
tp5265
a(I16
I19
I1
tp5266
a(I19
I43
I0
tp5267
a(I20
I21
I0
tp5268
a(I43
I6
I0
tp5269
a(I45
I19
I0
tp5270
a(I16
I40
I2
tp5271
a(I41
I49
I2
tp5272
a(I4
I31
I4
tp5273
a(I18
I40
I1
tp5274
a(I24
I49
I1
tp5275
a(I4
I31
I5
tp5276
a(I25
I40
I0
tp5277
a(I47
I46
I6
tp5278
a(I16
I19
I3
tp5279
a(I41
I44
I3
tp5280
a(I18
I19
I2
tp5281
a(I24
I44
I2
tp5282
a(I16
I40
I4
tp5283
a(I17
I19
I0
tp5284
a(I16
I40
I5
tp5285
a(I41
I49
I4
tp5286
a(I41
I49
I5
tp5287
a(I23
I14
I1
tp5288
a(I23
I15
I1
tp5289
a(I23
I33
I1
tp5290
a(I11
I48
I1
tp5291
a(I18
I40
I3
tp5292
a(I24
I49
I3
tp5293
a(I27
I40
I0
tp5294
a(I16
I19
I6
tp5295
a(I8
I31
I0
tp5296
a(I28
I4
I6
tp5297
a(I7
I39
I6
tp5298
a(I18
I19
I4
tp5299
a(I41
I44
I6
tp5300
a(I38
I28
I4
tp5301
a(I18
I19
I5
tp5302
a(I24
I44
I4
tp5303
a(I38
I28
I5
tp5304
a(I24
I44
I5
tp5305
a(I20
I8
I0
tp5306
a(I36
I51
I0
tp5307
a(I19
I43
I2
tp5308
a(I50
I14
I2
tp5309
a(I50
I15
I2
tp5310
a(I50
I33
I2
tp5311
a(I23
I44
I0
tp5312
a(I11
I48
I3
tp5313
a(I34
I48
I3
tp5314
a(I23
I15
I3
tp5315
a(I23
I14
I3
tp5316
a(I23
I33
I3
tp5317
a(I20
I21
I2
tp5318
a(I18
I40
I6
tp5319
a(I45
I19
I2
tp5320
a(I25
I19
I1
tp5321
a(I40
I43
I3
tp5322
a(I24
I49
I6
tp5323
a(I50
I49
I0
tp5324
a(I20
I37
I1
tp5325
a(I38
I26
I3
tp5326
a(I43
I6
I4
tp5327
a(I45
I40
I3
tp5328
a(I19
I43
I4
tp5329
a(I25
I40
I2
tp5330
a(I43
I6
I5
tp5331
a(I17
I40
I1
tp5332
a(I42
I40
I0
tp5333
a(I19
I43
I5
tp5334
a(I24
I30
I0
tp5335
a(I50
I14
I4
tp5336
a(I50
I15
I4
tp5337
a(I50
I33
I4
tp5338
a(I34
I48
I6
tp5339
a(I11
I48
I6
tp5340
a(I50
I15
I5
tp5341
a(I50
I33
I5
tp5342
a(I50
I14
I5
tp5343
a(I20
I21
I4
tp5344
a(I45
I19
I4
tp5345
a(I23
I33
I6
tp5346
a(I23
I14
I6
tp5347
a(I23
I15
I6
tp5348
a(I20
I21
I5
tp5349
a(I25
I19
I3
tp5350
a(I40
I43
I6
tp5351
a(I17
I19
I2
tp5352
a(I45
I19
I5
tp5353
a(I27
I19
I1
tp5354
a(I22
I48
I1
tp5355
a(I20
I37
I3
tp5356
a(I11
I9
I3
tp5357
a(I21
I31
I0
tp5358
a(I13
I48
I1
tp5359
a(I25
I40
I4
tp5360
a(I8
I31
I2
tp5361
a(I17
I40
I3
tp5362
a(I45
I40
I6
tp5363
a(I27
I40
I2
tp5364
a(I25
I40
I5
tp5365
a(I38
I26
I6
tp5366
a(I36
I51
I2
tp5367
a(I24
I12
I0
tp5368
a(I19
I7
I0
tp5369
a(I12
I48
I1
tp5370
a(I23
I49
I1
tp5371
a(I17
I19
I4
tp5372
a(I27
I19
I3
tp5373
a(I22
I48
I3
tp5374
a(I25
I19
I6
tp5375
a(I17
I19
I5
tp5376
a(I20
I8
I2
tp5377
a(I34
I9
I6
tp5378
a(I11
I9
I6
tp5379
a(I50
I44
I1
tp5380
a(I32
I51
I1
tp5381
a(I24
I13
I0
tp5382
a(I20
I37
I6
tp5383
a(I13
I48
I3
tp5384
a(I23
I44
I2
tp5385
a(I8
I31
I4
tp5386
a(I22
I9
I1
tp5387
a(I24
I22
I0
tp5388
a(I8
I31
I5
tp5389
a(I27
I40
I4
tp5390
a(I17
I40
I6
tp5391
a(I36
I51
I4
tp5392
a(I42
I19
I1
tp5393
a(I27
I40
I5
tp5394
a(I36
I51
I5
tp5395
a(I50
I49
I2
tp5396
a(I12
I48
I3
tp5397
a(I23
I49
I3
tp5398
a(I30
I48
I1
tp5399
a(I32
I51
I3
tp5400
a(I22
I48
I6
tp5401
a(I43
I39
I3
tp5402
a(I27
I19
I6
tp5403
a(I20
I8
I4
tp5404
a(I41
I30
I3
tp5405
a(I20
I8
I5
tp5406
a(I50
I44
I3
tp5407
a(I13
I48
I6
tp5408
a(I24
I30
I2
tp5409
a(I22
I9
I3
tp5410
a(I37
I31
I3
tp5411
a(I23
I44
I4
tp5412
a(I8
I32
I0
tp5413
a(I51
I2
I3
tp5414
a(I23
I44
I5
tp5415
a(I42
I19
I3
tp5416
a(I13
I9
I3
tp5417
a(I9
I35
I3
tp5418
a(I21
I31
I2
tp5419
a(I20
I4
I0
tp5420
a(I38
I17
I0
tp5421
a(I50
I49
I4
tp5422
a(I12
I48
I6
tp5423
a(I50
I49
I5
tp5424
a(I30
I48
I3
tp5425
a(I32
I51
I6
tp5426
a(I41
I22
I1
tp5427
a(I43
I39
I6
tp5428
a(I23
I49
I6
tp5429
a(I42
I40
I4
tp5430
a(I48
I35
I1
tp5431
a(I12
I9
I3
tp5432
a(I42
I40
I5
tp5433
a(I19
I7
I2
tp5434
a(I41
I12
I3
tp5435
a(I41
I30
I6
tp5436
a(I51
I2
I6
tp5437
a(I23
I30
I0
tp5438
a(I24
I30
I4
tp5439
a(I50
I44
I6
tp5440
a(I24
I12
I2
tp5441
a(I22
I9
I6
tp5442
a(I37
I31
I6
tp5443
a(I24
I30
I5
tp5444
a(I24
I34
I0
tp5445
a(I24
I11
I0
tp5446
a(I9
I35
I6
tp5447
a(I21
I31
I4
tp5448
a(I42
I19
I6
tp5449
a(I38
I45
I0
tp5450
a(I13
I9
I6
tp5451
a(I21
I31
I5
tp5452
a(I41
I13
I3
tp5453
a(I24
I13
I2
tp5454
a(I30
I48
I6
tp5455
a(I26
I40
I0
tp5456
a(I48
I35
I3
tp5457
a(I41
I22
I3
tp5458
a(I19
I7
I4
tp5459
a(I24
I22
I2
tp5460
a(I19
I7
I5
tp5461
a(I12
I9
I6
tp5462
a(I30
I9
I3
tp5463
a(I23
I12
I0
tp5464
a(I41
I12
I6
tp5465
a(I24
I12
I4
tp5466
a(I21
I32
I0
tp5467
a(I49
I48
I0
tp5468
a(I24
I12
I5
tp5469
a(I40
I7
I6
tp5470
a(I23
I13
I0
tp5471
a(I35
I5
I0
tp5472
a(I41
I13
I6
tp5473
a(I24
I13
I4
tp5474
a(I48
I35
I6
tp5475
a(I24
I13
I5
tp5476
a(I23
I22
I0
tp5477
a(I38
I18
I0
tp5478
a(I46
I20
I1
tp5479
a(I41
I22
I6
tp5480
a(I24
I22
I4
tp5481
a(I30
I9
I6
tp5482
a(I24
I22
I5
tp5483
a(I38
I42
I6
tp5484
a(I28
I19
I0
tp5485
a(I20
I4
I2
tp5486
a(I31
I51
I1
tp5487
a(I38
I17
I2
tp5488
a(I38
I27
I3
tp5489
a(I49
I9
I0
tp5490
a(I8
I32
I4
tp5491
a(I50
I30
I1
tp5492
a(I8
I32
I5
tp5493
a(I26
I19
I1
tp5494
a(I23
I30
I2
tp5495
a(I41
I11
I3
tp5496
a(I24
I34
I2
tp5497
a(I24
I11
I2
tp5498
a(I46
I20
I3
tp5499
a(I31
I51
I3
tp5500
a(I20
I4
I4
tp5501
a(I20
I4
I5
tp5502
a(I44
I48
I1
tp5503
a(I26
I40
I2
tp5504
a(I38
I25
I3
tp5505
a(I38
I17
I4
tp5506
a(I38
I17
I5
tp5507
a(I38
I27
I6
tp5508
a(I50
I12
I1
tp5509
a(I50
I30
I3
tp5510
a(I21
I32
I2
tp5511
a(I23
I34
I0
tp5512
a(I23
I11
I0
tp5513
a(I49
I48
I2
tp5514
a(I26
I19
I3
tp5515
a(I11
I31
I1
tp5516
a(I23
I12
I2
tp5517
a(I23
I30
I4
tp5518
a(I33
I48
I0
tp5519
a(I14
I48
I0
tp5520
a(I15
I48
I0
tp5521
a(I23
I30
I5
tp5522
a(I8
I36
I6
tp5523
a(I21
I36
I1
tp5524
a(I24
I34
I4
tp5525
a(I24
I11
I4
tp5526
a(I41
I11
I6
tp5527
a(I41
I34
I6
tp5528
a(I50
I13
I1
tp5529
a(I31
I51
I6
tp5530
a(I24
I34
I5
tp5531
a(I24
I11
I5
tp5532
a(I46
I20
I6
tp5533
a(I44
I48
I3
tp5534
a(I50
I22
I1
tp5535
a(I23
I13
I2
tp5536
a(I26
I40
I4
tp5537
a(I41
I21
I0
tp5538
a(I38
I45
I4
tp5539
a(I26
I40
I5
tp5540
a(I38
I45
I5
tp5541
a(I38
I25
I6
tp5542
a(I37
I32
I6
tp5543
a(I23
I22
I2
tp5544
a(I35
I5
I4
tp5545
a(I21
I32
I4
tp5546
a(I38
I18
I2
tp5547
a(I35
I5
I5
tp5548
a(I50
I12
I3
tp5549
a(I21
I32
I5
tp5550
a(I28
I19
I2
tp5551
a(I49
I48
I4
tp5552
a(I34
I31
I3
tp5553
a(I11
I31
I3
tp5554
a(I50
I30
I6
tp5555
a(I49
I48
I5
tp5556
a(I23
I12
I4
tp5557
a(I26
I19
I6
tp5558
a(I21
I36
I3
tp5559
a(I23
I12
I5
tp5560
a(I49
I9
I2
tp5561
a(I32
I39
I0
tp5562
a(I50
I13
I3
tp5563
a(I15
I9
I0
tp5564
a(I33
I9
I0
tp5565
a(I14
I9
I0
tp5566
a(I40
I10
I0
tp5567
a(I28
I40
I3
tp5568
a(I19
I3
I3
tp5569
a(I44
I48
I6
tp5570
a(I50
I22
I3
tp5571
a(I23
I13
I4
tp5572
a(I23
I13
I5
tp5573
a(I44
I9
I3
tp5574
a(I24
I37
I0
tp5575
a(I23
I22
I4
tp5576
a(I23
I22
I5
tp5577
a(I38
I18
I4
tp5578
a(I28
I19
I4
tp5579
a(I22
I31
I1
tp5580
a(I34
I31
I6
tp5581
a(I11
I31
I6
tp5582
a(I28
I19
I5
tp5583
a(I50
I12
I6
tp5584
a(I38
I18
I5
tp5585
a(I38
I16
I3
tp5586
a(I32
I6
I6
tp5587
a(I49
I9
I4
tp5588
a(I21
I36
I6
tp5589
a(I13
I31
I1
tp5590
a(I49
I9
I5
tp5591
a(I41
I8
I0
tp5592
a(I50
I11
I1
tp5593
a(I50
I13
I6
tp5594
a(I19
I3
I6
tp5595
a(I28
I40
I6
tp5596
a(I12
I31
I1
tp5597
a(I33
I48
I2
tp5598
a(I14
I48
I2
tp5599
a(I15
I48
I2
tp5600
a(I11
I36
I0
tp5601
a(I23
I11
I2
tp5602
a(I23
I34
I2
tp5603
a(I50
I22
I6
tp5604
a(I44
I9
I6
tp5605
a(I22
I31
I3
tp5606
a(I13
I31
I3
tp5607
a(I41
I21
I2
tp5608
a(I24
I21
I1
tp5609
a(I38
I16
I6
tp5610
a(I19
I10
I1
tp5611
a(I46
I28
I0
tp5612
a(I50
I11
I3
tp5613
a(I50
I34
I3
tp5614
a(I12
I31
I3
tp5615
a(I30
I31
I1
tp5616
a(I33
I48
I4
tp5617
a(I15
I48
I4
tp5618
a(I14
I48
I4
tp5619
a(I14
I48
I5
tp5620
a(I15
I48
I5
tp5621
a(I33
I48
I5
tp5622
a(I23
I11
I4
tp5623
a(I23
I34
I4
tp5624
a(I23
I34
I5
tp5625
a(I23
I11
I5
tp5626
a(I14
I9
I2
tp5627
a(I15
I9
I2
tp5628
a(I22
I31
I6
tp5629
a(I4
I43
I6
tp5630
a(I36
I39
I6
tp5631
a(I19
I10
I3
tp5632
a(I13
I31
I6
tp5633
a(I41
I21
I4
tp5634
a(I24
I21
I3
tp5635
a(I32
I39
I4
tp5636
a(I41
I21
I5
tp5637
a(I32
I39
I5
tp5638
a(I24
I37
I2
tp5639
a(I22
I36
I0
tp5640
a(I30
I31
I3
tp5641
a(I50
I21
I0
tp5642
a(I12
I31
I6
tp5643
a(I50
I11
I6
tp5644
a(I50
I34
I6
tp5645
a(I40
I10
I4
tp5646
a(I13
I36
I0
tp5647
a(I40
I10
I5
tp5648
a(I33
I9
I4
tp5649
a(I14
I9
I4
tp5650
a(I15
I9
I4
tp5651
a(I23
I37
I0
tp5652
a(I11
I32
I3
tp5653
a(I15
I9
I5
tp5654
a(I33
I9
I5
tp5655
a(I14
I9
I5
tp5656
a(I31
I39
I0
tp5657
a(I37
I43
I0
tp5658
a(I12
I36
I0
tp5659
a(I24
I8
I1
tp5660
a(I31
I6
I3
tp5661
a(I19
I10
I6
tp5662
a(I24
I21
I6
tp5663
a(I24
I37
I4
tp5664
a(I41
I37
I6
tp5665
a(I24
I37
I5
tp5666
a(I49
I31
I0
tp5667
a(I9
I51
I1
tp5668
a(I20
I40
I0
tp5669
a(I30
I31
I6
tp5670
a(I38
I29
I0
tp5671
a(I22
I32
I1
tp5672
a(I11
I32
I6
tp5673
a(I34
I32
I6
tp5674
a(I30
I36
I0
tp5675
a(I29
I48
I1
tp5676
a(I31
I6
I6
tp5677
a(I11
I36
I4
tp5678
a(I41
I8
I4
tp5679
a(I24
I8
I3
tp5680
a(I11
I36
I5
tp5681
a(I46
I28
I2
tp5682
a(I41
I8
I5
tp5683
a(I50
I8
I0
tp5684
a(I9
I51
I3
tp5685
a(I23
I21
I1
tp5686
a(I47
I38
I6
tp5687
a(I48
I51
I1
tp5688
a(I8
I43
I3
tp5689
a(I22
I32
I3
tp5690
a(I46
I26
I1
tp5691
a(I13
I32
I3
tp5692
a(I29
I48
I3
tp5693
a(I22
I36
I2
tp5694
a(I29
I9
I1
tp5695
a(I31
I39
I2
tp5696
a(I35
I2
I6
tp5697
a(I50
I21
I2
tp5698
a(I24
I8
I6
tp5699
a(I46
I28
I4
tp5700
a(I12
I32
I3
tp5701
a(I9
I51
I6
tp5702
a(I46
I28
I5
tp5703
a(I21
I43
I1
tp5704
a(I23
I21
I3
tp5705
a(I48
I51
I3
tp5706
a(I44
I31
I1
tp5707
a(I23
I37
I2
tp5708
a(I20
I19
I1
tp5709
a(I8
I43
I6
tp5710
a(I22
I32
I6
tp5711
a(I33
I31
I0
tp5712
a(I14
I31
I0
tp5713
a(I15
I31
I0
tp5714
a(I22
I36
I4
tp5715
a(I13
I32
I6
tp5716
a(I22
I36
I5
tp5717
a(I46
I26
I3
tp5718
a(I29
I48
I6
tp5719
a(I31
I39
I4
tp5720
a(I49
I31
I2
tp5721
a(I29
I9
I3
tp5722
a(I31
I39
I5
tp5723
a(I13
I36
I4
tp5724
a(I20
I40
I2
tp5725
a(I13
I36
I5
tp5726
a(I30
I32
I3
tp5727
a(I23
I8
I1
tp5728
a(I50
I21
I4
tp5729
a(I37
I43
I4
tp5730
a(I50
I37
I3
tp5731
a(I12
I32
I6
tp5732
a(I50
I21
I5
tp5733
a(I37
I43
I5
tp5734
a(I21
I43
I3
tp5735
a(I48
I51
I6
tp5736
a(I44
I31
I3
tp5737
a(I12
I36
I4
tp5738
a(I38
I29
I2
tp5739
a(I24
I4
I1
tp5740
a(I12
I36
I5
tp5741
a(I23
I37
I4
tp5742
a(I23
I21
I6
tp5743
a(I20
I19
I3
tp5744
a(I23
I37
I5
tp5745
a(I49
I32
I0
tp5746
a(I50
I8
I2
tp5747
a(I49
I31
I4
tp5748
a(I49
I31
I5
tp5749
a(I29
I9
I6
tp5750
a(I20
I40
I4
tp5751
a(I46
I26
I6
tp5752
a(I23
I8
I3
tp5753
a(I30
I32
I6
tp5754
a(I20
I40
I5
tp5755
a(I30
I36
I4
tp5756
a(I34
I43
I0
tp5757
a(I11
I43
I0
tp5758
a(I21
I43
I6
tp5759
a(I30
I36
I5
tp5760
a(I50
I37
I6
tp5761
a(I50
I4
I0
tp5762
a(I44
I31
I6
tp5763
a(I38
I29
I4
tp5764
a(I24
I4
I3
tp5765
a(I44
I36
I0
tp5766
a(I38
I29
I5
tp5767
a(I46
I17
I0
tp5768
a(I20
I19
I6
tp5769
a(I50
I8
I4
tp5770
a(I50
I8
I5
tp5771
a(I16
I48
I0
tp5772
a(I15
I31
I2
tp5773
a(I14
I31
I2
tp5774
a(I33
I31
I2
tp5775
a(I23
I8
I6
tp5776
a(I46
I45
I0
tp5777
a(I24
I4
I6
tp5778
a(I21
I7
I1
tp5779
a(I22
I43
I0
tp5780
a(I9
I39
I0
tp5781
a(I15
I32
I0
tp5782
a(I33
I32
I0
tp5783
a(I14
I32
I0
tp5784
a(I13
I43
I0
tp5785
a(I16
I9
I0
tp5786
a(I8
I7
I6
tp5787
a(I15
I31
I4
tp5788
a(I14
I31
I4
tp5789
a(I33
I31
I4
tp5790
a(I38
I44
I0
tp5791
a(I33
I31
I5
tp5792
a(I14
I31
I5
tp5793
a(I15
I31
I5
tp5794
a(I49
I32
I2
tp5795
a(I23
I4
I1
tp5796
a(I46
I18
I0
tp5797
a(I12
I43
I0
tp5798
a(I46
I42
I3
tp5799
a(I46
I27
I1
tp5800
a(I11
I43
I2
tp5801
a(I44
I32
I3
tp5802
a(I21
I7
I3
tp5803
a(I48
I39
I0
tp5804
a(I25
I48
I0
tp5805
a(I30
I43
I0
tp5806
a(I46
I25
I1
tp5807
a(I49
I32
I4
tp5808
a(I9
I6
I6
tp5809
a(I38
I15
I3
tp5810
a(I38
I14
I3
tp5811
a(I49
I32
I5
tp5812
a(I48
I6
I3
tp5813
a(I23
I4
I3
tp5814
a(I46
I17
I2
tp5815
a(I49
I36
I3
tp5816
a(I11
I7
I0
tp5817
a(I46
I27
I3
tp5818
a(I21
I3
I0
tp5819
a(I11
I43
I4
tp5820
a(I34
I43
I4
tp5821
a(I46
I42
I6
tp5822
a(I16
I48
I2
tp5823
a(I34
I43
I5
tp5824
a(I11
I43
I5
tp5825
a(I18
I48
I1
tp5826
a(I21
I7
I6
tp5827
a(I44
I32
I6
tp5828
a(I27
I48
I0
tp5829
a(I44
I36
I4
tp5830
a(I44
I36
I5
tp5831
a(I29
I31
I1
tp5832
a(I25
I9
I0
tp5833
a(I50
I4
I4
tp5834
a(I46
I45
I2
tp5835
a(I50
I4
I5
tp5836
a(I8
I10
I0
tp5837
a(I22
I43
I2
tp5838
a(I46
I25
I3
tp5839
a(I48
I6
I6
tp5840
a(I15
I32
I2
tp5841
a(I14
I32
I2
tp5842
a(I49
I36
I6
tp5843
a(I13
I43
I2
tp5844
a(I38
I14
I6
tp5845
a(I38
I33
I6
tp5846
a(I38
I15
I6
tp5847
a(I46
I17
I4
tp5848
a(I23
I4
I6
tp5849
a(I46
I17
I5
tp5850
a(I16
I9
I2
tp5851
a(I16
I48
I4
tp5852
a(I18
I9
I1
tp5853
a(I18
I48
I3
tp5854
a(I16
I48
I5
tp5855
a(I27
I9
I0
tp5856
a(I46
I27
I6
tp5857
a(I12
I43
I2
tp5858
a(I45
I48
I1
tp5859
a(I42
I48
I0
tp5860
a(I29
I31
I3
tp5861
a(I9
I39
I4
tp5862
a(I22
I7
I0
tp5863
a(I41
I40
I0
tp5864
a(I9
I39
I5
tp5865
a(I48
I39
I2
tp5866
a(I13
I7
I0
tp5867
a(I46
I16
I1
tp5868
a(I46
I18
I2
tp5869
a(I46
I45
I4
tp5870
a(I22
I43
I4
tp5871
a(I22
I43
I5
tp5872
a(I46
I45
I5
tp5873
a(I15
I32
I4
tp5874
a(I14
I32
I4
tp5875
a(I33
I32
I4
tp5876
a(I13
I43
I4
tp5877
a(I38
I30
I0
tp5878
a(I38
I49
I3
tp5879
a(I24
I19
I0
tp5880
a(I14
I32
I5
tp5881
a(I15
I32
I5
tp5882
a(I33
I32
I5
tp5883
a(I13
I43
I5
tp5884
a(I12
I7
I0
tp5885
a(I46
I25
I6
tp5886
a(I14
I36
I3
tp5887
a(I15
I36
I3
tp5888
a(I17
I48
I1
tp5889
a(I30
I43
I2
tp5890
a(I16
I9
I4
tp5891
a(I29
I36
I0
tp5892
a(I25
I48
I2
tp5893
a(I21
I10
I0
tp5894
a(I18
I9
I3
tp5895
a(I16
I9
I5
tp5896
a(I12
I43
I4
tp5897
a(I42
I9
I0
tp5898
a(I18
I48
I6
tp5899
a(I45
I48
I3
tp5900
a(I12
I43
I5
tp5901
a(I48
I39
I4
tp5902
a(I38
I44
I4
tp5903
a(I21
I3
I2
tp5904
a(I29
I31
I6
tp5905
a(I48
I39
I5
tp5906
a(I38
I44
I5
tp5907
a(I19
I35
I0
tp5908
a(I38
I12
I0
tp5909
a(I30
I7
I0
tp5910
a(I46
I16
I3
tp5911
a(I46
I18
I4
tp5912
a(I27
I48
I2
tp5913
a(I44
I43
I0
tp5914
a(I46
I18
I5
tp5915
a(I17
I9
I1
tp5916
a(I38
I13
I0
tp5917
a(I17
I48
I3
tp5918
a(I30
I43
I4
tp5919
a(I33
I36
I6
tp5920
a(I15
I36
I6
tp5921
a(I14
I36
I6
tp5922
a(I25
I9
I2
tp5923
a(I30
I43
I5
tp5924
a(I38
I49
I6
tp5925
a(I38
I22
I0
tp5926
a(I25
I48
I4
tp5927
a(I25
I48
I5
tp5928
a(I45
I9
I3
tp5929
a(I18
I9
I6
tp5930
a(I10
I5
I6
tp5931
a(I45
I48
I6
tp5932
a(I11
I7
I4
tp5933
a(I21
I3
I4
tp5934
a(I11
I7
I5
tp5935
a(I21
I3
I5
tp5936
a(I29
I32
I1
tp5937
a(I41
I19
I1
tp5938
a(I27
I9
I2
tp5939
a(I27
I48
I4
tp5940
a(I42
I48
I2
tp5941
a(I17
I9
I3
tp5942
a(I27
I48
I5
tp5943
a(I22
I7
I2
tp5944
a(I46
I16
I6
tp5945
a(I8
I10
I4
tp5946
a(I16
I31
I0
tp5947
a(I25
I9
I4
tp5948
a(I17
I48
I6
tp5949
a(I24
I40
I1
tp5950
a(I8
I10
I5
tp5951
a(I25
I9
I5
tp5952
a(I45
I9
I6
tp5953
a(I26
I48
I0
tp5954
a(I23
I19
I0
tp5955
a(I29
I32
I3
tp5956
a(I38
I11
I0
tp5957
a(I21
I10
I2
tp5958
a(I24
I19
I2
tp5959
a(I29
I36
I2
tp5960
a(I50
I40
I0
tp5961
a(I41
I19
I3
tp5962
a(I27
I9
I4
tp5963
a(I27
I9
I5
tp5964
a(I49
I43
I1
tp5965
a(I22
I7
I4
tp5966
a(I46
I29
I0
tp5967
a(I42
I48
I4
tp5968
a(I19
I35
I2
tp5969
a(I22
I7
I5
tp5970
a(I42
I48
I5
tp5971
a(I17
I9
I6
tp5972
a(I13
I7
I4
tp5973
a(I24
I40
I3
tp5974
a(I13
I7
I5
tp5975
a(I41
I40
I4
tp5976
a(I26
I9
I0
tp5977
a(I41
I40
I5
tp5978
a(I44
I43
I2
tp5979
a(I40
I35
I3
tp5980
a(I12
I7
I4
tp5981
a(I47
I50
I0
tp5982
a(I12
I7
I5
tp5983
a(I21
I10
I4
tp5984
a(I37
I10
I6
tp5985
a(I29
I32
I6
tp5986
a(I21
I10
I5
tp5987
a(I29
I36
I4
tp5988
a(I24
I19
I4
tp5989
a(I29
I36
I5
tp5990
a(I24
I19
I5
tp5991
a(I38
I30
I4
tp5992
a(I44
I7
I0
tp5993
a(I42
I9
I4
tp5994
a(I41
I19
I6
tp5995
a(I49
I43
I3
tp5996
a(I19
I35
I4
tp5997
a(I25
I31
I0
tp5998
a(I38
I30
I5
tp5999
a(I42
I9
I5
tp6000
a(I19
I35
I5
tp6001
a(I38
I22
I2
tp6002
a(I30
I7
I4
tp6003
a(I30
I7
I5
tp6004
a(I24
I40
I6
tp6005
a(I44
I43
I4
tp6006
a(I40
I35
I6
tp6007
a(I44
I43
I5
tp6008
a(I27
I31
I0
tp6009
a(I38
I12
I4
tp6010
a(I16
I31
I2
tp6011
a(I38
I12
I5
tp6012
a(I18
I31
I1
tp6013
a(I23
I40
I1
tp6014
a(I14
I43
I1
tp6015
a(I15
I43
I1
tp6016
a(I50
I19
I1
tp6017
a(I38
I13
I4
tp6018
a(I49
I43
I6
tp6019
a(I16
I32
I0
tp6020
a(I38
I13
I5
tp6021
a(I26
I48
I2
tp6022
a(I38
I22
I4
tp6023
a(I38
I22
I5
tp6024
a(I23
I19
I2
tp6025
a(I51
I1
I3
tp6026
a(I50
I40
I2
tp6027
a(I42
I31
I0
tp6028
a(I11
I3
I6
tp6029
a(I28
I48
I1
tp6030
a(I45
I31
I1
tp6031
a(I18
I31
I3
tp6032
a(I29
I43
I0
tp6033
a(I16
I31
I4
tp6034
a(I23
I40
I3
tp6035
a(I16
I31
I5
tp6036
a(I46
I29
I2
tp6037
a(I33
I43
I3
tp6038
a(I14
I43
I3
tp6039
a(I15
I43
I3
tp6040
a(I22
I3
I3
tp6041
a(I26
I9
I2
tp6042
a(I50
I19
I3
tp6043
a(I18
I36
I0
tp6044
a(I26
I48
I4
tp6045
a(I26
I48
I5
tp6046
a(I51
I1
I6
tp6047
a(I47
I23
I1
tp6048
a(I23
I19
I4
tp6049
a(I43
I5
I0
tp6050
a(I17
I31
I1
tp6051
a(I23
I19
I5
tp6052
a(I11
I10
I3
tp6053
a(I50
I40
I4
tp6054
a(I25
I31
I2
tp6055
a(I47
I41
I0
tp6056
a(I38
I11
I4
tp6057
a(I28
I48
I3
tp6058
a(I50
I40
I5
tp6059
a(I47
I50
I2
tp6060
a(I38
I11
I5
tp6061
a(I45
I31
I3
tp6062
a(I25
I32
I0
tp6063
a(I18
I31
I6
tp6064
a(I49
I7
I3
tp6065
a(I45
I36
I0
tp6066
a(I23
I40
I6
tp6067
a(I22
I10
I1
tp6068
a(I15
I43
I6
tp6069
a(I33
I43
I6
tp6070
a(I14
I43
I6
tp6071
a(I26
I9
I4
tp6072
a(I22
I3
I6
tp6073
a(I46
I29
I4
tp6074
a(I26
I9
I5
tp6075
a(I46
I29
I5
tp6076
a(I49
I3
I0
tp6077
a(I50
I19
I6
tp6078
a(I13
I3
I6
tp6079
a(I27
I31
I2
tp6080
a(I27
I32
I0
tp6081
a(I17
I31
I3
tp6082
a(I44
I7
I4
tp6083
a(I28
I9
I3
tp6084
a(I47
I23
I3
tp6085
a(I12
I3
I6
tp6086
a(I44
I7
I5
tp6087
a(I25
I31
I4
tp6088
a(I18
I32
I1
tp6089
a(I17
I36
I0
tp6090
a(I11
I10
I6
tp6091
a(I34
I10
I6
tp6092
a(I16
I32
I2
tp6093
a(I25
I31
I5
tp6094
a(I46
I44
I0
tp6095
a(I28
I48
I6
tp6096
a(I45
I31
I6
tp6097
a(I47
I50
I4
tp6098
a(I22
I10
I3
tp6099
a(I47
I50
I5
tp6100
a(I49
I7
I6
tp6101
a(I13
I10
I3
tp6102
a(I42
I31
I2
tp6103
a(I38
I21
I1
tp6104
a(I46
I14
I1
tp6105
a(I46
I15
I1
tp6106
a(I19
I51
I0
tp6107
a(I27
I31
I4
tp6108
a(I30
I3
I6
tp6109
a(I42
I32
I0
tp6110
a(I29
I43
I2
tp6111
a(I27
I31
I5
tp6112
a(I26
I31
I0
tp6113
a(I12
I10
I3
tp6114
a(I17
I31
I6
tp6115
a(I29
I7
I0
tp6116
a(I18
I32
I3
tp6117
a(I16
I32
I4
tp6118
a(I28
I9
I6
tp6119
a(I18
I36
I2
tp6120
a(I16
I36
I3
tp6121
a(I16
I32
I5
tp6122
a(I47
I24
I1
tp6123
a(I20
I48
I0
tp6124
a(I15
I7
I3
tp6125
a(I14
I7
I3
tp6126
a(I47
I23
I6
tp6127
a(I14
I3
I0
tp6128
a(I15
I3
I0
tp6129
a(I49
I10
I0
tp6130
a(I22
I10
I6
tp6131
a(I30
I10
I3
tp6132
a(I17
I32
I1
tp6133
a(I13
I10
I6
tp6134
a(I42
I31
I4
tp6135
a(I42
I31
I5
tp6136
a(I38
I21
I3
tp6137
a(I29
I43
I4
tp6138
a(I46
I14
I3
tp6139
a(I46
I15
I3
tp6140
a(I46
I33
I3
tp6141
a(I25
I32
I2
tp6142
a(I29
I43
I5
tp6143
a(I43
I5
I4
tp6144
a(I12
I10
I6
tp6145
a(I43
I5
I5
tp6146
a(I45
I32
I3
tp6147
a(I20
I9
I0
tp6148
a(I18
I36
I4
tp6149
a(I18
I32
I6
tp6150
a(I18
I36
I5
tp6151
a(I16
I36
I6
tp6152
a(I33
I7
I6
tp6153
a(I14
I7
I6
tp6154
a(I15
I7
I6
tp6155
a(I47
I24
I3
tp6156
a(I27
I32
I2
tp6157
a(I46
I49
I1
tp6158
a(I40
I51
I1
tp6159
a(I17
I32
I3
tp6160
a(I30
I10
I6
tp6161
a(I17
I36
I2
tp6162
a(I25
I32
I4
tp6163
a(I25
I36
I3
tp6164
a(I25
I32
I5
tp6165
a(I46
I30
I0
tp6166
a(I38
I21
I6
tp6167
a(I46
I33
I6
tp6168
a(I46
I14
I6
tp6169
a(I46
I15
I6
tp6170
a(I46
I44
I2
tp6171
a(I45
I36
I4
tp6172
a(I19
I51
I2
tp6173
a(I45
I32
I6
tp6174
a(I45
I36
I5
tp6175
a(I49
I3
I4
tp6176
a(I14
I10
I0
tp6177
a(I33
I10
I0
tp6178
a(I15
I10
I0
tp6179
a(I49
I3
I5
tp6180
a(I47
I41
I4
tp6181
a(I26
I32
I0
tp6182
a(I27
I32
I4
tp6183
a(I27
I36
I3
tp6184
a(I26
I31
I2
tp6185
a(I47
I41
I5
tp6186
a(I27
I32
I5
tp6187
a(I29
I7
I2
tp6188
a(I40
I51
I3
tp6189
a(I46
I12
I0
tp6190
a(I18
I43
I0
tp6191
a(I46
I49
I3
tp6192
a(I17
I36
I4
tp6193
a(I37
I35
I0
tp6194
a(I44
I3
I6
tp6195
a(I47
I24
I6
tp6196
a(I17
I32
I6
tp6197
a(I17
I36
I5
tp6198
a(I46
I13
I0
tp6199
a(I28
I31
I1
tp6200
a(I20
I48
I2
tp6201
a(I25
I36
I6
tp6202
a(I46
I22
I0
tp6203
a(I49
I10
I2
tp6204
a(I19
I51
I4
tp6205
a(I19
I51
I5
tp6206
a(I46
I44
I4
tp6207
a(I46
I44
I5
tp6208
a(I4
I35
I6
tp6209
a(I38
I8
I6
tp6210
a(I42
I32
I4
tp6211
a(I19
I6
I0
tp6212
a(I45
I43
I0
tp6213
a(I42
I32
I5
tp6214
a(I44
I10
I3
tp6215
a(I26
I31
I4
tp6216
a(I29
I7
I4
tp6217
a(I40
I51
I6
tp6218
a(I27
I36
I6
tp6219
a(I26
I31
I5
tp6220
a(I29
I7
I5
tp6221
a(I20
I9
I2
tp6222
a(I28
I36
I0
tp6223
a(I46
I49
I6
tp6224
a(I28
I31
I3
tp6225
a(I14
I3
I4
tp6226
a(I15
I3
I4
tp6227
a(I20
I48
I4
tp6228
a(I49
I10
I4
tp6229
a(I14
I3
I5
tp6230
a(I15
I3
I5
tp6231
a(I17
I43
I0
tp6232
a(I20
I48
I5
tp6233
a(I49
I10
I5
tp6234
a(I46
I34
I0
tp6235
a(I46
I11
I0
tp6236
a(I16
I43
I1
tp6237
a(I42
I36
I6
tp6238
a(I44
I10
I6
tp6239
a(I20
I9
I4
tp6240
a(I15
I10
I2
tp6241
a(I14
I10
I2
tp6242
a(I8
I35
I3
tp6243
a(I20
I9
I5
tp6244
a(I46
I30
I2
tp6245
a(I47
I20
I0
tp6246
a(I28
I31
I6
tp6247
a(I26
I32
I2
tp6248
a(I35
I1
I6
tp6249
a(I21
I35
I1
tp6250
a(I40
I39
I0
tp6251
a(I18
I7
I0
tp6252
a(I18
I43
I2
tp6253
a(I16
I43
I3
tp6254
a(I46
I12
I2
tp6255
a(I43
I2
I6
tp6256
a(I20
I31
I0
tp6257
a(I15
I10
I4
tp6258
a(I14
I10
I4
tp6259
a(I33
I10
I4
tp6260
a(I46
I13
I2
tp6261
a(I33
I10
I5
tp6262
a(I14
I10
I5
tp6263
a(I15
I10
I5
tp6264
a(I25
I43
I1
tp6265
a(I19
I6
I2
tp6266
a(I8
I35
I6
tp6267
a(I46
I22
I2
tp6268
a(I11
I35
I0
tp6269
a(I34
I35
I0
tp6270
a(I45
I7
I0
tp6271
a(I46
I30
I4
tp6272
a(I29
I3
I3
tp6273
a(I45
I43
I2
tp6274
a(I21
I35
I3
tp6275
a(I26
I36
I3
tp6276
a(I26
I32
I4
tp6277
a(I46
I30
I5
tp6278
a(I37
I35
I4
tp6279
a(I26
I32
I5
tp6280
a(I18
I43
I4
tp6281
a(I37
I35
I5
tp6282
a(I18
I43
I5
tp6283
a(I16
I43
I6
tp6284
a(I27
I43
I1
tp6285
a(I28
I32
I3
tp6286
a(I17
I7
I0
tp6287
a(I17
I43
I2
tp6288
a(I46
I12
I4
tp6289
a(I46
I12
I5
tp6290
a(I29
I10
I1
tp6291
a(I19
I6
I4
tp6292
a(I25
I43
I3
tp6293
a(I41
I48
I0
tp6294
a(I19
I6
I5
tp6295
a(I46
I13
I4
tp6296
a(I46
I13
I5
tp6297
a(I32
I5
I6
tp6298
a(I46
I22
I4
tp6299
a(I45
I43
I4
tp6300
a(I19
I39
I1
tp6301
a(I22
I35
I0
tp6302
a(I21
I35
I6
tp6303
a(I29
I3
I6
tp6304
a(I46
I11
I2
tp6305
a(I45
I43
I5
tp6306
a(I46
I22
I5
tp6307
a(I26
I36
I6
tp6308
a(I13
I35
I0
tp6309
a(I40
I6
I6
tp6310
a(I46
I37
I0
tp6311
a(I27
I43
I3
tp6312
a(I28
I36
I4
tp6313
a(I12
I35
I0
tp6314
a(I16
I3
I0
tp6315
a(I28
I36
I5
tp6316
a(I38
I19
I0
tp6317
a(I41
I9
I0
tp6318
a(I28
I32
I6
tp6319
a(I17
I43
I4
tp6320
a(I17
I43
I5
tp6321
a(I18
I7
I2
tp6322
a(I29
I10
I3
tp6323
a(I16
I7
I3
tp6324
a(I20
I32
I0
tp6325
a(I25
I43
I6
tp6326
a(I19
I39
I3
tp6327
a(I47
I20
I2
tp6328
a(I30
I35
I0
tp6329
a(I20
I31
I2
tp6330
a(I42
I43
I3
tp6331
a(I46
I11
I4
tp6332
a(I46
I34
I4
tp6333
a(I46
I11
I5
tp6334
a(I46
I34
I5
tp6335
a(I28
I43
I0
tp6336
a(I11
I35
I2
tp6337
a(I40
I39
I4
tp6338
a(I27
I43
I6
tp6339
a(I40
I39
I5
tp6340
a(I31
I5
I3
tp6341
a(I18
I7
I4
tp6342
a(I18
I7
I5
tp6343
a(I29
I10
I6
tp6344
a(I16
I7
I6
tp6345
a(I25
I3
I0
tp6346
a(I19
I39
I6
tp6347
a(I4
I51
I3
tp6348
a(I16
I10
I0
tp6349
a(I17
I7
I2
tp6350
a(I37
I51
I0
tp6351
a(I47
I20
I4
tp6352
a(I20
I31
I4
tp6353
a(I25
I7
I3
tp6354
a(I50
I48
I0
tp6355
a(I46
I21
I1
tp6356
a(I47
I20
I5
tp6357
a(I20
I31
I5
tp6358
a(I42
I43
I6
tp6359
a(I11
I35
I4
tp6360
a(I34
I35
I4
tp6361
a(I24
I48
I1
tp6362
a(I31
I2
I0
tp6363
a(I27
I3
I0
tp6364
a(I34
I35
I5
tp6365
a(I11
I35
I5
tp6366
a(I31
I5
I6
tp6367
a(I45
I7
I4
tp6368
a(I41
I48
I2
tp6369
a(I22
I35
I2
tp6370
a(I45
I7
I5
tp6371
a(I13
I35
I2
tp6372
a(I26
I43
I1
tp6373
a(I27
I7
I3
tp6374
a(I12
I35
I2
tp6375
a(I50
I9
I0
tp6376
a(I4
I51
I6
tp6377
a(I24
I9
I1
tp6378
a(I17
I7
I4
tp6379
a(I47
I26
I0
tp6380
a(I17
I7
I5
tp6381
a(I38
I19
I2
tp6382
a(I8
I51
I1
tp6383
a(I24
I48
I3
tp6384
a(I25
I7
I6
tp6385
a(I46
I21
I3
tp6386
a(I44
I35
I0
tp6387
a(I25
I10
I0
tp6388
a(I20
I36
I1
tp6389
a(I30
I35
I2
tp6390
a(I22
I35
I4
tp6391
a(I20
I32
I2
tp6392
a(I41
I48
I4
tp6393
a(I22
I35
I5
tp6394
a(I13
I35
I4
tp6395
a(I28
I7
I0
tp6396
a(I41
I48
I5
tp6397
a(I26
I43
I3
tp6398
a(I13
I35
I5
tp6399
a(I12
I35
I4
tp6400
a(I27
I7
I6
tp6401
a(I18
I3
I3
tp6402
a(I27
I10
I0
tp6403
a(I28
I43
I2
tp6404
a(I12
I35
I5
tp6405
a(I16
I3
I4
tp6406
a(I24
I9
I3
tp6407
a(I16
I3
I5
tp6408
a(I8
I51
I3
tp6409
a(I41
I9
I4
tp6410
a(I23
I48
I1
tp6411
a(I46
I37
I4
tp6412
a(I41
I9
I5
tp6413
a(I38
I19
I4
tp6414
a(I21
I51
I1
tp6415
a(I46
I37
I5
tp6416
a(I30
I35
I4
tp6417
a(I20
I36
I3
tp6418
a(I18
I10
I1
tp6419
a(I38
I19
I5
tp6420
a(I46
I8
I3
tp6421
a(I24
I48
I6
tp6422
a(I37
I51
I2
tp6423
a(I30
I35
I5
tp6424
a(I20
I32
I4
tp6425
a(I41
I31
I0
tp6426
a(I16
I10
I2
tp6427
a(I46
I21
I6
tp6428
a(I20
I32
I5
tp6429
a(I42
I10
I0
tp6430
a(I42
I7
I6
tp6431
a(I26
I43
I6
tp6432
a(I11
I51
I0
tp6433
a(I34
I51
I0
tp6434
a(I28
I43
I4
tp6435
a(I23
I9
I1
tp6436
a(I50
I48
I2
tp6437
a(I18
I3
I6
tp6438
a(I28
I43
I5
tp6439
a(I38
I40
I6
tp6440
a(I24
I9
I6
tp6441
a(I17
I3
I3
tp6442
a(I8
I51
I6
tp6443
a(I47
I42
I0
tp6444
a(I23
I48
I3
tp6445
a(I21
I51
I3
tp6446
a(I26
I3
I0
tp6447
a(I49
I35
I1
tp6448
a(I25
I3
I4
tp6449
a(I31
I2
I4
tp6450
a(I37
I51
I4
tp6451
a(I18
I10
I3
tp6452
a(I31
I2
I5
tp6453
a(I25
I3
I5
tp6454
a(I37
I51
I5
tp6455
a(I16
I10
I4
tp6456
a(I20
I36
I6
tp6457
a(I50
I9
I2
tp6458
a(I16
I10
I5
tp6459
a(I46
I8
I6
tp6460
a(I17
I10
I1
tp6461
a(I45
I3
I6
tp6462
a(I44
I35
I2
tp6463
a(I26
I7
I3
tp6464
a(I27
I3
I4
tp6465
a(I22
I51
I0
tp6466
a(I25
I10
I2
tp6467
a(I23
I9
I3
tp6468
a(I47
I28
I3
tp6469
a(I8
I39
I0
tp6470
a(I50
I48
I4
tp6471
a(I27
I3
I5
tp6472
a(I47
I27
I0
tp6473
a(I13
I51
I0
tp6474
a(I50
I48
I5
tp6475
a(I47
I26
I2
tp6476
a(I45
I10
I3
tp6477
a(I17
I3
I6
tp6478
a(I12
I51
I0
tp6479
a(I48
I5
I3
tp6480
a(I49
I35
I3
tp6481
a(I21
I51
I6
tp6482
a(I23
I48
I6
tp6483
a(I27
I10
I2
tp6484
a(I47
I25
I0
tp6485
a(I18
I10
I6
tp6486
a(I9
I5
I6
tp6487
a(I41
I32
I0
tp6488
a(I50
I9
I4
tp6489
a(I17
I10
I3
tp6490
a(I50
I9
I5
tp6491
a(I50
I31
I0
tp6492
a(I30
I51
I0
tp6493
a(I26
I10
I0
tp6494
a(I44
I35
I4
tp6495
a(I14
I35
I1
tp6496
a(I15
I35
I1
tp6497
a(I48
I2
I0
tp6498
a(I44
I35
I5
tp6499
a(I29
I35
I0
tp6500
a(I25
I10
I4
tp6501
a(I24
I31
I1
tp6502
a(I21
I39
I0
tp6503
a(I26
I7
I6
tp6504
a(I25
I10
I5
tp6505
a(I23
I9
I6
tp6506
a(I28
I7
I4
tp6507
a(I41
I31
I2
tp6508
a(I48
I5
I6
tp6509
a(I45
I10
I6
tp6510
a(I28
I7
I5
tp6511
a(I47
I28
I6
tp6512
a(I24
I36
I0
tp6513
a(I47
I26
I4
tp6514
a(I11
I51
I2
tp6515
a(I34
I51
I2
tp6516
a(I51
I0
I3
tp6517
a(I49
I35
I6
tp6518
a(I27
I10
I4
tp6519
a(I47
I26
I5
tp6520
a(I27
I10
I5
tp6521
a(I21
I6
I1
tp6522
a(I20
I43
I1
tp6523
a(I47
I16
I0
tp6524
a(I17
I10
I6
tp6525
a(I33
I35
I3
tp6526
a(I14
I35
I3
tp6527
a(I15
I35
I3
tp6528
a(I46
I4
I6
tp6529
a(I11
I6
I0
tp6530
a(I24
I31
I3
tp6531
a(I42
I10
I4
tp6532
a(I41
I31
I4
tp6533
a(I51
I0
I6
tp6534
a(I42
I10
I5
tp6535
a(I11
I51
I4
tp6536
a(I34
I51
I4
tp6537
a(I41
I31
I5
tp6538
a(I34
I51
I5
tp6539
a(I11
I51
I5
tp6540
a(I22
I51
I2
tp6541
a(I8
I6
I6
tp6542
a(I21
I6
I3
tp6543
a(I13
I51
I2
tp6544
a(I46
I19
I0
tp6545
a(I20
I43
I3
tp6546
a(I47
I17
I1
tp6547
a(I12
I51
I2
tp6548
a(I50
I32
I0
tp6549
a(I23
I31
I1
tp6550
a(I33
I35
I6
tp6551
a(I14
I35
I6
tp6552
a(I15
I35
I6
tp6553
a(I22
I6
I0
tp6554
a(I26
I3
I4
tp6555
a(I44
I51
I0
tp6556
a(I26
I3
I5
tp6557
a(I13
I6
I0
tp6558
a(I23
I36
I0
tp6559
a(I24
I32
I1
tp6560
a(I47
I27
I2
tp6561
a(I24
I31
I6
tp6562
a(I12
I6
I0
tp6563
a(I30
I51
I2
tp6564
a(I8
I39
I4
tp6565
a(I22
I51
I4
tp6566
a(I26
I10
I2
tp6567
a(I8
I39
I5
tp6568
a(I21
I39
I2
tp6569
a(I22
I51
I5
tp6570
a(I29
I35
I2
tp6571
a(I13
I51
I4
tp6572
a(I50
I31
I2
tp6573
a(I21
I6
I6
tp6574
a(I13
I51
I5
tp6575
a(I47
I25
I2
tp6576
a(I47
I42
I4
tp6577
a(I47
I42
I5
tp6578
a(I12
I51
I4
tp6579
a(I30
I6
I0
tp6580
a(I20
I7
I1
tp6581
a(I20
I43
I6
tp6582
a(I12
I51
I5
tp6583
a(I23
I31
I3
tp6584
a(I47
I18
I1
tp6585
a(I47
I17
I3
tp6586
a(I20
I3
I0
tp6587
a(I48
I2
I4
tp6588
a(I24
I36
I2
tp6589
a(I48
I2
I5
tp6590
a(I24
I32
I3
tp6591
a(I30
I51
I4
tp6592
a(I28
I3
I6
tp6593
a(I47
I27
I4
tp6594
a(I30
I51
I5
tp6595
a(I41
I32
I4
tp6596
a(I21
I39
I4
tp6597
a(I26
I10
I4
tp6598
a(I47
I27
I5
tp6599
a(I47
I45
I3
tp6600
a(I29
I35
I4
tp6601
a(I41
I32
I5
tp6602
a(I21
I39
I5
tp6603
a(I26
I10
I5
tp6604
a(I29
I35
I5
tp6605
a(I50
I31
I4
tp6606
a(I37
I39
I6
tp6607
a(I28
I10
I3
tp6608
a(I50
I31
I5
tp6609
a(I20
I7
I3
tp6610
a(I47
I25
I4
tp6611
a(I23
I32
I1
tp6612
a(I47
I16
I2
tp6613
a(I47
I25
I5
tp6614
a(I18
I35
I0
tp6615
a(I49
I51
I1
tp6616
a(I23
I31
I6
tp6617
a(I24
I36
I4
tp6618
a(I47
I18
I3
tp6619
a(I24
I36
I5
tp6620
a(I24
I43
I0
tp6621
a(I47
I17
I6
tp6622
a(I24
I32
I6
tp6623
a(I20
I10
I0
tp6624
a(I11
I6
I4
tp6625
a(I41
I36
I6
tp6626
a(I22
I6
I2
tp6627
a(I11
I6
I5
tp6628
a(I46
I19
I2
tp6629
a(I44
I51
I2
tp6630
a(I50
I32
I2
tp6631
a(I45
I35
I0
tp6632
a(I28
I10
I6
tp6633
a(I47
I45
I6
tp6634
a(I23
I36
I2
tp6635
a(I44
I6
I0
tp6636
a(I23
I32
I3
tp6637
a(I20
I7
I6
tp6638
a(I49
I51
I3
tp6639
a(I46
I40
I3
tp6640
a(I47
I16
I4
tp6641
a(I17
I35
I0
tp6642
a(I47
I16
I5
tp6643
a(I11
I39
I3
tp6644
a(I29
I51
I0
tp6645
a(I22
I39
I1
tp6646
a(I14
I51
I1
tp6647
a(I33
I51
I1
tp6648
a(I15
I51
I1
tp6649
a(I22
I6
I4
tp6650
a(I50
I36
I3
tp6651
a(I22
I6
I5
tp6652
a(I47
I18
I6
tp6653
a(I44
I51
I4
tp6654
a(I13
I6
I4
tp6655
a(I44
I51
I5
tp6656
a(I13
I6
I5
tp6657
a(I46
I19
I4
tp6658
a(I50
I32
I4
tp6659
a(I20
I3
I2
tp6660
a(I50
I32
I5
tp6661
a(I46
I19
I5
tp6662
a(I12
I6
I4
tp6663
a(I16
I35
I1
tp6664
a(I12
I6
I5
tp6665
a(I23
I43
I0
tp6666
a(I23
I36
I4
tp6667
a(I23
I36
I5
tp6668
a(I49
I51
I6
tp6669
a(I23
I32
I6
tp6670
a(I24
I7
I0
tp6671
a(I49
I39
I0
tp6672
a(I30
I6
I4
tp6673
a(I22
I39
I3
tp6674
a(I46
I40
I6
tp6675
a(I30
I6
I5
tp6676
a(I34
I39
I6
tp6677
a(I11
I39
I6
tp6678
a(I15
I51
I3
tp6679
a(I14
I51
I3
tp6680
a(I33
I51
I3
tp6681
a(I13
I39
I3
tp6682
a(I47
I15
I0
tp6683
a(I47
I14
I0
tp6684
a(I47
I33
I0
tp6685
a(I18
I35
I2
tp6686
a(I12
I39
I3
tp6687
a(I50
I36
I6
tp6688
a(I20
I3
I4
tp6689
a(I16
I35
I3
tp6690
a(I20
I3
I5
tp6691
a(I35
I0
I6
tp6692
a(I24
I43
I2
tp6693
a(I43
I1
I6
tp6694
a(I25
I35
I1
tp6695
a(I20
I10
I2
tp6696
a(I47
I29
I1
tp6697
a(I30
I39
I3
tp6698
a(I41
I43
I3
tp6699
a(I45
I35
I2
tp6700
a(I22
I39
I6
tp6701
a(I33
I51
I6
tp6702
a(I14
I51
I6
tp6703
a(I15
I51
I6
tp6704
a(I33
I39
I0
tp6705
a(I14
I39
I0
tp6706
a(I15
I39
I0
tp6707
a(I27
I35
I1
tp6708
a(I13
I39
I6
tp6709
a(I18
I35
I4
tp6710
a(I47
I49
I0
tp6711
a(I12
I39
I6
tp6712
a(I18
I35
I5
tp6713
a(I17
I35
I2
tp6714
a(I23
I7
I0
tp6715
a(I29
I51
I2
tp6716
a(I16
I35
I6
tp6717
a(I49
I6
I3
tp6718
a(I24
I43
I4
tp6719
a(I25
I35
I3
tp6720
a(I29
I6
I0
tp6721
a(I24
I43
I5
tp6722
a(I20
I10
I4
tp6723
a(I20
I10
I5
tp6724
a(I30
I39
I6
tp6725
a(I50
I43
I1
tp6726
a(I47
I29
I3
tp6727
a(I45
I35
I4
tp6728
a(I41
I43
I6
tp6729
a(I19
I5
I0
tp6730
a(I45
I35
I5
tp6731
a(I44
I6
I4
tp6732
a(I27
I35
I3
tp6733
a(I44
I6
I5
tp6734
a(I28
I35
I0
tp6735
a(I23
I43
I2
tp6736
a(I49
I39
I2
tp6737
a(I17
I35
I4
tp6738
a(I17
I35
I5
tp6739
a(I29
I51
I4
tp6740
a(I24
I7
I2
tp6741
a(I29
I51
I5
tp6742
a(I49
I6
I6
tp6743
a(I18
I51
I0
tp6744
a(I25
I35
I6
tp6745
a(I42
I35
I3
tp6746
a(I38
I48
I3
tp6747
a(I15
I6
I3
tp6748
a(I14
I6
I3
tp6749
a(I44
I39
I3
tp6750
a(I31
I1
I0
tp6751
a(I50
I43
I3
tp6752
a(I41
I10
I0
tp6753
a(I47
I14
I2
tp6754
a(I47
I15
I2
tp6755
a(I27
I35
I6
tp6756
a(I47
I29
I6
tp6757
a(I23
I43
I4
tp6758
a(I45
I51
I0
tp6759
a(I49
I39
I4
tp6760
a(I23
I43
I5
tp6761
a(I49
I39
I5
tp6762
a(I24
I7
I4
tp6763
a(I14
I39
I2
tp6764
a(I15
I39
I2
tp6765
a(I50
I3
I0
tp6766
a(I24
I7
I5
tp6767
a(I26
I35
I1
tp6768
a(I17
I51
I0
tp6769
a(I42
I35
I6
tp6770
a(I33
I6
I6
tp6771
a(I15
I6
I6
tp6772
a(I14
I6
I6
tp6773
a(I44
I39
I6
tp6774
a(I41
I7
I6
tp6775
a(I38
I48
I6
tp6776
a(I50
I43
I6
tp6777
a(I23
I7
I2
tp6778
a(I24
I3
I1
tp6779
a(I29
I6
I2
tp6780
a(I47
I33
I4
tp6781
a(I47
I14
I4
tp6782
a(I47
I15
I4
tp6783
a(I19
I5
I2
tp6784
a(I47
I49
I2
tp6785
a(I16
I51
I1
tp6786
a(I47
I14
I5
tp6787
a(I47
I33
I5
tp6788
a(I47
I15
I5
tp6789
a(I38
I9
I6
tp6790
a(I14
I39
I4
tp6791
a(I15
I39
I4
tp6792
a(I33
I39
I4
tp6793
a(I14
I39
I5
tp6794
a(I15
I39
I5
tp6795
a(I33
I39
I5
tp6796
a(I26
I35
I3
tp6797
a(I50
I7
I3
tp6798
a(I28
I35
I2
tp6799
a(I50
I10
I0
tp6800
a(I29
I39
I1
tp6801
a(I47
I44
I3
tp6802
a(I23
I7
I4
tp6803
a(I24
I3
I3
tp6804
a(I29
I6
I4
tp6805
a(I23
I7
I5
tp6806
a(I29
I6
I5
tp6807
a(I18
I51
I2
tp6808
a(I18
I6
I0
tp6809
a(I19
I5
I4
tp6810
a(I24
I10
I1
tp6811
a(I19
I5
I5
tp6812
a(I16
I51
I3
tp6813
a(I25
I51
I1
tp6814
a(I47
I49
I4
tp6815
a(I23
I3
I1
tp6816
a(I47
I49
I5
tp6817
a(I26
I35
I6
tp6818
a(I28
I35
I4
tp6819
a(I45
I6
I0
tp6820
a(I40
I5
I6
tp6821
a(I45
I51
I2
tp6822
a(I28
I35
I5
tp6823
a(I29
I39
I3
tp6824
a(I50
I7
I6
tp6825
a(I31
I1
I4
tp6826
a(I27
I51
I1
tp6827
a(I31
I1
I5
tp6828
a(I16
I39
I0
tp6829
a(I17
I6
I0
tp6830
a(I18
I51
I4
tp6831
a(I17
I51
I2
tp6832
a(I24
I3
I6
tp6833
a(I47
I44
I6
tp6834
a(I18
I51
I5
tp6835
a(I24
I10
I3
tp6836
a(I47
I22
I1
tp6837
a(I48
I1
I0
tp6838
a(I16
I51
I6
tp6839
a(I25
I51
I3
tp6840
a(I42
I51
I1
tp6841
a(I38
I31
I3
tp6842
a(I41
I10
I4
tp6843
a(I23
I3
I3
tp6844
a(I41
I10
I5
tp6845
a(I47
I21
I0
tp6846
a(I28
I51
I0
tp6847
a(I45
I51
I4
tp6848
a(I23
I10
I1
tp6849
a(I47
I30
I3
tp6850
a(I45
I51
I5
tp6851
a(I27
I51
I3
tp6852
a(I29
I39
I6
tp6853
a(I25
I39
I0
tp6854
a(I17
I51
I4
tp6855
a(I17
I51
I5
tp6856
a(I47
I12
I3
tp6857
a(I50
I3
I4
tp6858
a(I50
I3
I5
tp6859
a(I50
I10
I2
tp6860
a(I19
I2
I3
tp6861
a(I24
I10
I6
tp6862
a(I27
I39
I0
tp6863
a(I47
I13
I3
tp6864
a(I42
I51
I3
tp6865
a(I47
I8
I0
tp6866
a(I47
I22
I3
tp6867
a(I25
I51
I6
tp6868
a(I20
I35
I1
tp6869
a(I18
I6
I2
tp6870
a(I38
I31
I6
tp6871
a(I23
I3
I6
tp6872
a(I23
I10
I3
tp6873
a(I16
I6
I3
tp6874
a(I27
I51
I6
tp6875
a(I42
I39
I0
tp6876
a(I47
I30
I6
tp6877
a(I26
I51
I1
tp6878
a(I18
I39
I1
tp6879
a(I46
I48
I1
tp6880
a(I47
I11
I3
tp6881
a(I19
I2
I6
tp6882
a(I50
I10
I4
tp6883
a(I38
I43
I0
tp6884
a(I42
I51
I6
tp6885
a(I50
I10
I5
tp6886
a(I16
I39
I2
tp6887
a(I47
I12
I6
tp6888
a(I20
I35
I3
tp6889
a(I17
I6
I2
tp6890
a(I18
I6
I4
tp6891
a(I47
I13
I6
tp6892
a(I18
I6
I5
tp6893
a(I47
I22
I6
tp6894
a(I23
I10
I6
tp6895
a(I25
I6
I3
tp6896
a(I16
I6
I6
tp6897
a(I28
I6
I0
tp6898
a(I26
I51
I3
tp6899
a(I45
I6
I4
tp6900
a(I17
I39
I1
tp6901
a(I28
I51
I2
tp6902
a(I18
I39
I3
tp6903
a(I45
I6
I5
tp6904
a(I27
I6
I3
tp6905
a(I38
I32
I6
tp6906
a(I46
I48
I3
tp6907
a(I48
I1
I4
tp6908
a(I16
I39
I4
tp6909
a(I48
I1
I5
tp6910
a(I25
I39
I2
tp6911
a(I16
I39
I5
tp6912
a(I17
I6
I4
tp6913
a(I26
I39
I0
tp6914
a(I20
I35
I6
tp6915
a(I47
I34
I6
tp6916
a(I47
I11
I6
tp6917
a(I47
I21
I2
tp6918
a(I17
I6
I5
tp6919
a(I45
I39
I3
tp6920
a(I46
I9
I3
tp6921
a(I27
I39
I2
tp6922
a(I24
I35
I0
tp6923
a(I25
I6
I6
tp6924
a(I17
I39
I3
tp6925
a(I28
I51
I4
tp6926
a(I26
I51
I6
tp6927
a(I28
I51
I5
tp6928
a(I18
I39
I6
tp6929
a(I27
I6
I6
tp6930
a(I11
I5
I0
tp6931
a(I25
I39
I4
tp6932
a(I25
I39
I5
tp6933
a(I46
I48
I6
tp6934
a(I21
I5
I1
tp6935
a(I47
I21
I4
tp6936
a(I27
I39
I4
tp6937
a(I45
I39
I6
tp6938
a(I42
I6
I6
tp6939
a(I47
I21
I5
tp6940
a(I27
I39
I5
tp6941
a(I21
I2
I0
tp6942
a(I46
I9
I6
tp6943
a(I22
I5
I0
tp6944
a(I23
I35
I0
tp6945
a(I17
I39
I6
tp6946
a(I46
I36
I0
tp6947
a(I13
I5
I0
tp6948
a(I42
I39
I4
tp6949
a(I12
I5
I0
tp6950
a(I42
I39
I5
tp6951
a(I21
I5
I3
tp6952
a(I26
I6
I3
tp6953
a(I47
I8
I4
tp6954
a(I46
I31
I1
tp6955
a(I47
I8
I5
tp6956
a(I8
I5
I6
tp6957
a(I47
I37
I6
tp6958
a(I30
I5
I0
tp6959
a(I20
I51
I1
tp6960
a(I26
I39
I2
tp6961
a(I38
I43
I4
tp6962
a(I38
I43
I5
tp6963
a(I21
I5
I6
tp6964
a(I24
I35
I2
tp6965
a(I28
I6
I4
tp6966
a(I26
I6
I6
tp6967
a(I28
I6
I5
tp6968
a(I46
I31
I3
tp6969
a(I43
I0
I6
tp6970
a(I20
I51
I3
tp6971
a(I41
I35
I3
tp6972
a(I47
I40
I0
tp6973
a(I20
I39
I0
tp6974
a(I26
I39
I4
tp6975
a(I28
I39
I3
tp6976
a(I26
I39
I5
tp6977
a(I21
I2
I2
tp6978
a(I44
I5
I0
tp6979
a(I50
I35
I1
tp6980
a(I24
I35
I4
tp6981
a(I22
I5
I2
tp6982
a(I24
I35
I5
tp6983
a(I11
I5
I4
tp6984
a(I11
I5
I5
tp6985
a(I23
I35
I2
tp6986
a(I20
I51
I6
tp6987
a(I41
I35
I6
tp6988
a(I24
I51
I0
tp6989
a(I46
I31
I6
tp6990
a(I31
I0
I0
tp6991
a(I20
I6
I1
tp6992
a(I46
I43
I0
tp6993
a(I28
I39
I6
tp6994
a(I46
I32
I3
tp6995
a(I21
I2
I4
tp6996
a(I21
I2
I5
tp6997
a(I50
I35
I3
tp6998
a(I22
I5
I4
tp6999
a(I22
I5
I5
tp7000
a(I13
I5
I4
tp7001
a(I13
I5
I5
tp7002
a(I12
I5
I4
tp7003
a(I12
I5
I5
tp7004
a(I23
I35
I4
tp7005
a(I23
I35
I5
tp7006
a(I20
I6
I3
tp7007
a(I46
I36
I4
tp7008
a(I30
I5
I4
tp7009
a(I23
I51
I0
tp7010
a(I30
I5
I5
tp7011
a(I46
I36
I5
tp7012
a(I47
I19
I1
tp7013
a(I46
I32
I6
tp7014
a(I20
I39
I2
tp7015
a(I46
I7
I0
tp7016
a(I50
I35
I6
tp7017
a(I49
I2
I0
tp7018
a(I29
I5
I0
tp7019
a(I41
I51
I1
tp7020
a(I24
I6
I0
tp7021
a(I20
I6
I6
tp7022
a(I49
I5
I3
tp7023
a(I22
I2
I3
tp7024
a(I47
I19
I3
tp7025
a(I20
I39
I4
tp7026
a(I15
I2
I0
tp7027
a(I14
I2
I0
tp7028
a(I24
I51
I2
tp7029
a(I11
I2
I6
tp7030
a(I20
I39
I5
tp7031
a(I44
I5
I4
tp7032
a(I41
I39
I0
tp7033
a(I41
I51
I3
tp7034
a(I44
I5
I5
tp7035
a(I46
I43
I2
tp7036
a(I47
I40
I4
tp7037
a(I48
I0
I0
tp7038
a(I31
I0
I4
tp7039
a(I47
I40
I5
tp7040
a(I31
I0
I5
tp7041
a(I38
I10
I6
tp7042
a(I23
I6
I0
tp7043
a(I14
I5
I3
tp7044
a(I15
I5
I3
tp7045
a(I49
I5
I6
tp7046
a(I22
I2
I6
tp7047
a(I50
I51
I1
tp7048
a(I13
I2
I6
tp7049
a(I24
I51
I4
tp7050
a(I12
I2
I6
tp7051
a(I24
I51
I5
tp7052
a(I47
I19
I6
tp7053
a(I23
I51
I2
tp7054
a(I41
I51
I6
tp7055
a(I30
I2
I6
tp7056
a(I46
I43
I4
tp7057
a(I46
I43
I5
tp7058
a(I19
I1
I3
tp7059
a(I50
I39
I0
tp7060
a(I29
I5
I2
tp7061
a(I33
I5
I6
tp7062
a(I14
I5
I6
tp7063
a(I15
I5
I6
tp7064
a(I50
I51
I3
tp7065
a(I18
I5
I0
tp7066
a(I24
I6
I2
tp7067
a(I38
I35
I0
tp7068
a(I23
I51
I4
tp7069
a(I23
I51
I5
tp7070
a(I49
I2
I4
tp7071
a(I49
I2
I5
tp7072
a(I19
I1
I6
tp7073
a(I45
I5
I0
tp7074
a(I24
I39
I1
tp7075
a(I29
I5
I4
tp7076
a(I29
I5
I5
tp7077
a(I17
I5
I0
tp7078
a(I46
I7
I4
tp7079
a(I44
I2
I6
tp7080
a(I50
I51
I6
tp7081
a(I46
I7
I5
tp7082
a(I24
I6
I4
tp7083
a(I24
I6
I5
tp7084
a(I23
I6
I2
tp7085
a(I15
I2
I4
tp7086
a(I14
I2
I4
tp7087
a(I14
I2
I5
tp7088
a(I15
I2
I5
tp7089
a(I41
I6
I6
tp7090
a(I24
I39
I3
tp7091
a(I48
I0
I4
tp7092
a(I48
I0
I5
tp7093
a(I23
I39
I1
tp7094
a(I41
I39
I4
tp7095
a(I16
I2
I0
tp7096
a(I50
I6
I3
tp7097
a(I41
I39
I5
tp7098
a(I21
I1
I0
tp7099
a(I29
I2
I3
tp7100
a(I23
I6
I4
tp7101
a(I50
I39
I2
tp7102
a(I23
I6
I5
tp7103
a(I47
I48
I0
tp7104
a(I18
I5
I2
tp7105
a(I24
I39
I6
tp7106
a(I25
I2
I0
tp7107
a(I23
I39
I3
tp7108
a(I16
I5
I3
tp7109
a(I47
I9
I0
tp7110
a(I46
I10
I3
tp7111
a(I27
I2
I0
tp7112
a(I50
I6
I6
tp7113
a(I46
I3
I6
tp7114
a(I28
I5
I0
tp7115
a(I17
I5
I2
tp7116
a(I29
I2
I6
tp7117
a(I50
I39
I4
tp7118
a(I50
I39
I5
tp7119
a(I18
I5
I4
tp7120
a(I18
I5
I5
tp7121
a(I38
I51
I0
tp7122
a(I25
I5
I3
tp7123
a(I16
I5
I6
tp7124
a(I23
I39
I6
tp7125
a(I38
I35
I4
tp7126
a(I27
I5
I3
tp7127
a(I45
I5
I4
tp7128
a(I38
I35
I5
tp7129
a(I45
I5
I5
tp7130
a(I46
I10
I6
tp7131
a(I17
I5
I4
tp7132
a(I17
I5
I5
tp7133
a(I21
I1
I2
tp7134
a(I25
I5
I6
tp7135
a(I26
I2
I0
tp7136
a(I46
I35
I0
tp7137
a(I27
I5
I6
tp7138
a(I18
I2
I3
tp7139
a(I47
I31
I0
tp7140
a(I16
I2
I4
tp7141
a(I16
I2
I5
tp7142
a(I47
I48
I2
tp7143
a(I42
I5
I6
tp7144
a(I21
I1
I4
tp7145
a(I21
I1
I5
tp7146
a(I26
I5
I3
tp7147
a(I17
I2
I3
tp7148
a(I18
I2
I6
tp7149
a(I25
I2
I4
tp7150
a(I49
I1
I0
tp7151
a(I25
I2
I5
tp7152
a(I38
I51
I2
tp7153
a(I47
I32
I0
tp7154
a(I27
I2
I4
tp7155
a(I27
I2
I5
tp7156
a(I45
I2
I6
tp7157
a(I47
I48
I4
tp7158
a(I47
I48
I5
tp7159
a(I28
I5
I4
tp7160
a(I28
I5
I5
tp7161
a(I26
I5
I6
tp7162
a(I17
I2
I6
tp7163
a(I14
I1
I0
tp7164
a(I15
I1
I0
tp7165
a(I47
I9
I4
tp7166
a(I47
I9
I5
tp7167
a(I22
I1
I3
tp7168
a(I38
I51
I4
tp7169
a(I38
I51
I5
tp7170
a(I20
I2
I0
tp7171
a(I11
I1
I6
tp7172
a(I20
I5
I1
tp7173
a(I46
I35
I2
tp7174
a(I47
I31
I2
tp7175
a(I22
I1
I6
tp7176
a(I26
I2
I4
tp7177
a(I46
I51
I0
tp7178
a(I13
I1
I6
tp7179
a(I26
I2
I5
tp7180
a(I12
I1
I6
tp7181
a(I20
I5
I3
tp7182
a(I30
I1
I6
tp7183
a(I46
I35
I4
tp7184
a(I19
I0
I3
tp7185
a(I46
I35
I5
tp7186
a(I24
I5
I0
tp7187
a(I28
I2
I6
tp7188
a(I47
I31
I4
tp7189
a(I47
I31
I5
tp7190
a(I49
I1
I4
tp7191
a(I49
I1
I5
tp7192
a(I20
I5
I6
tp7193
a(I19
I0
I6
tp7194
a(I46
I6
I0
tp7195
a(I23
I5
I0
tp7196
a(I20
I2
I2
tp7197
a(I44
I1
I6
tp7198
a(I14
I1
I4
tp7199
a(I15
I1
I4
tp7200
a(I16
I1
I0
tp7201
a(I14
I1
I5
tp7202
a(I15
I1
I5
tp7203
a(I47
I32
I4
tp7204
a(I47
I32
I5
tp7205
a(I38
I39
I6
tp7206
a(I21
I0
I0
tp7207
a(I20
I2
I4
tp7208
a(I46
I51
I2
tp7209
a(I25
I1
I0
tp7210
a(I20
I2
I5
tp7211
a(I29
I1
I3
tp7212
a(I27
I1
I0
tp7213
a(I47
I36
I6
tp7214
a(I24
I5
I2
tp7215
a(I50
I2
I0
tp7216
a(I46
I51
I4
tp7217
a(I29
I1
I6
tp7218
a(I46
I51
I5
tp7219
a(I47
I10
I0
tp7220
a(I47
I43
I3
tp7221
a(I24
I5
I4
tp7222
a(I23
I5
I2
tp7223
a(I24
I5
I5
tp7224
a(I24
I2
I1
tp7225
a(I26
I1
I0
tp7226
a(I41
I5
I6
tp7227
a(I50
I5
I3
tp7228
a(I21
I0
I2
tp7229
a(I18
I1
I3
tp7230
a(I23
I5
I4
tp7231
a(I23
I5
I5
tp7232
a(I47
I43
I6
tp7233
a(I16
I1
I4
tp7234
a(I46
I6
I4
tp7235
a(I23
I2
I1
tp7236
a(I24
I2
I3
tp7237
a(I16
I1
I5
tp7238
a(I46
I6
I5
tp7239
a(I46
I39
I3
tp7240
a(I21
I0
I4
tp7241
a(I17
I1
I3
tp7242
a(I21
I0
I5
tp7243
a(I50
I5
I6
tp7244
a(I49
I0
I0
tp7245
a(I25
I1
I4
tp7246
a(I18
I1
I6
tp7247
a(I25
I1
I5
tp7248
a(I27
I1
I4
tp7249
a(I23
I2
I3
tp7250
a(I27
I1
I5
tp7251
a(I47
I7
I6
tp7252
a(I45
I1
I6
tp7253
a(I24
I2
I6
tp7254
a(I14
I0
I0
tp7255
a(I15
I0
I0
tp7256
a(I17
I1
I6
tp7257
a(I46
I39
I6
tp7258
a(I20
I1
I0
tp7259
a(I50
I2
I4
tp7260
a(I50
I2
I5
tp7261
a(I22
I0
I3
tp7262
a(I23
I2
I6
tp7263
a(I11
I0
I6
tp7264
a(I47
I10
I4
tp7265
a(I26
I1
I4
tp7266
a(I26
I1
I5
tp7267
a(I47
I10
I5
tp7268
a(I22
I0
I6
tp7269
a(I13
I0
I6
tp7270
a(I12
I0
I6
tp7271
a(I30
I0
I6
tp7272
a(I28
I1
I6
tp7273
a(I49
I0
I4
tp7274
a(I49
I0
I5
tp7275
a(I20
I1
I2
tp7276
a(I16
I0
I0
tp7277
a(I44
I0
I6
tp7278
a(I15
I0
I4
tp7279
a(I14
I0
I4
tp7280
a(I14
I0
I5
tp7281
a(I15
I0
I5
tp7282
a(I25
I0
I0
tp7283
a(I20
I1
I4
tp7284
a(I20
I1
I5
tp7285
a(I27
I0
I0
tp7286
a(I29
I0
I3
tp7287
a(I50
I1
I0
tp7288
a(I46
I5
I0
tp7289
a(I29
I0
I6
tp7290
a(I47
I35
I3
tp7291
a(I26
I0
I0
tp7292
a(I24
I1
I1
tp7293
a(I18
I0
I3
tp7294
a(I23
I1
I1
tp7295
a(I24
I1
I3
tp7296
a(I16
I0
I4
tp7297
a(I47
I35
I6
tp7298
a(I16
I0
I5
tp7299
a(I47
I39
I0
tp7300
a(I17
I0
I3
tp7301
a(I47
I51
I1
tp7302
a(I25
I0
I4
tp7303
a(I25
I0
I5
tp7304
a(I18
I0
I6
tp7305
a(I23
I1
I3
tp7306
a(I27
I0
I4
tp7307
a(I24
I1
I6
tp7308
a(I27
I0
I5
tp7309
a(I20
I0
I0
tp7310
a(I45
I0
I6
tp7311
a(I17
I0
I6
tp7312
a(I50
I1
I4
tp7313
a(I50
I1
I5
tp7314
a(I47
I51
I3
tp7315
a(I23
I1
I6
tp7316
a(I46
I5
I4
tp7317
a(I46
I5
I5
tp7318
a(I26
I0
I4
tp7319
a(I26
I0
I5
tp7320
a(I47
I51
I6
tp7321
a(I28
I0
I6
tp7322
a(I20
I0
I2
tp7323
a(I46
I2
I6
tp7324
a(I47
I39
I4
tp7325
a(I47
I6
I6
tp7326
a(I47
I39
I5
tp7327
a(I20
I0
I4
tp7328
a(I50
I0
I0
tp7329
a(I20
I0
I5
tp7330
a(I24
I0
I1
tp7331
a(I23
I0
I1
tp7332
a(I24
I0
I3
tp7333
a(I23
I0
I3
tp7334
a(I24
I0
I6
tp7335
a(I50
I0
I4
tp7336
a(I50
I0
I5
tp7337
a(I23
I0
I6
tp7338
a(I46
I1
I6
tp7339
a(I47
I5
I6
tp7340
a(I46
I0
I6
tp7341
a.